
seesaw.elf:     file format elf32-littlearm

Sections:
Idx Name          Size      VMA       LMA       File off  Algn
  0 .text         00003384  00000000  00000000  00010000  2**2
                  CONTENTS, ALLOC, LOAD, READONLY, CODE
  1 .relocate     0000006c  20000000  00003384  00020000  2**2
                  CONTENTS, ALLOC, LOAD, DATA
  2 .bss          000007a8  2000006c  000033f0  0002006c  2**2
                  ALLOC
  3 .stack        00000404  20000814  00003b98  0002006c  2**0
                  ALLOC
  4 .ARM.attributes 00000028  00000000  00000000  0002006c  2**0
                  CONTENTS, READONLY
  5 .comment      00000059  00000000  00000000  00020094  2**0
                  CONTENTS, READONLY
  6 .debug_frame  000001e0  00000000  00000000  000200f0  2**2
                  CONTENTS, READONLY, DEBUGGING

Disassembly of section .text:

00000000 <exception_table>:
       0:	18 0c 00 20 b9 03 00 00 89 0a 00 00 b5 03 00 00     ... ............
	...
      2c:	b5 03 00 00 00 00 00 00 00 00 00 00 ad 09 00 00     ................
      3c:	7d 08 00 00 b5 03 00 00 b5 03 00 00 b5 03 00 00     }...............
      4c:	b5 03 00 00 b5 03 00 00 b5 03 00 00 b5 03 00 00     ................
      5c:	00 00 00 00 b5 03 00 00 b5 03 00 00 71 28 00 00     ............q(..
	...
      74:	b5 03 00 00 b5 03 00 00 b5 03 00 00 00 00 00 00     ................
      84:	00 00 00 00 b5 03 00 00                             ........

0000008c <__do_global_dtors_aux>:
      8c:	b510      	push	{r4, lr}
      8e:	4c06      	ldr	r4, [pc, #24]	; (a8 <__do_global_dtors_aux+0x1c>)
      90:	7823      	ldrb	r3, [r4, #0]
      92:	2b00      	cmp	r3, #0
      94:	d107      	bne.n	a6 <__do_global_dtors_aux+0x1a>
      96:	4b05      	ldr	r3, [pc, #20]	; (ac <__do_global_dtors_aux+0x20>)
      98:	2b00      	cmp	r3, #0
      9a:	d002      	beq.n	a2 <__do_global_dtors_aux+0x16>
      9c:	4804      	ldr	r0, [pc, #16]	; (b0 <__do_global_dtors_aux+0x24>)
      9e:	e000      	b.n	a2 <__do_global_dtors_aux+0x16>
      a0:	bf00      	nop
      a2:	2301      	movs	r3, #1
      a4:	7023      	strb	r3, [r4, #0]
      a6:	bd10      	pop	{r4, pc}
      a8:	2000006c 	.word	0x2000006c
      ac:	00000000 	.word	0x00000000
      b0:	00003384 	.word	0x00003384

000000b4 <frame_dummy>:
      b4:	4b08      	ldr	r3, [pc, #32]	; (d8 <frame_dummy+0x24>)
      b6:	b510      	push	{r4, lr}
      b8:	2b00      	cmp	r3, #0
      ba:	d003      	beq.n	c4 <frame_dummy+0x10>
      bc:	4907      	ldr	r1, [pc, #28]	; (dc <frame_dummy+0x28>)
      be:	4808      	ldr	r0, [pc, #32]	; (e0 <frame_dummy+0x2c>)
      c0:	e000      	b.n	c4 <frame_dummy+0x10>
      c2:	bf00      	nop
      c4:	4807      	ldr	r0, [pc, #28]	; (e4 <frame_dummy+0x30>)
      c6:	6803      	ldr	r3, [r0, #0]
      c8:	2b00      	cmp	r3, #0
      ca:	d100      	bne.n	ce <frame_dummy+0x1a>
      cc:	bd10      	pop	{r4, pc}
      ce:	4b06      	ldr	r3, [pc, #24]	; (e8 <frame_dummy+0x34>)
      d0:	2b00      	cmp	r3, #0
      d2:	d0fb      	beq.n	cc <frame_dummy+0x18>
      d4:	4798      	blx	r3
      d6:	e7f9      	b.n	cc <frame_dummy+0x18>
      d8:	00000000 	.word	0x00000000
      dc:	20000070 	.word	0x20000070
      e0:	00003384 	.word	0x00003384
      e4:	00003384 	.word	0x00003384
      e8:	00000000 	.word	0x00000000

000000ec <_Z7syncADCv>:
      ec:	4a02      	ldr	r2, [pc, #8]	; (f8 <_Z7syncADCv+0xc>)
      ee:	7e53      	ldrb	r3, [r2, #25]
      f0:	09db      	lsrs	r3, r3, #7
      f2:	d1fc      	bne.n	ee <_Z7syncADCv+0x2>
      f4:	4770      	bx	lr
      f6:	46c0      	nop			; (mov r8, r8)
      f8:	42002000 	.word	0x42002000

000000fc <_Z8adc_initv>:
      fc:	4a17      	ldr	r2, [pc, #92]	; (15c <_Z8adc_initv+0x60>)
      fe:	7853      	ldrb	r3, [r2, #1]
     100:	b25b      	sxtb	r3, r3
     102:	2b00      	cmp	r3, #0
     104:	dbfb      	blt.n	fe <_Z8adc_initv+0x2>
     106:	4b16      	ldr	r3, [pc, #88]	; (160 <_Z8adc_initv+0x64>)
     108:	8053      	strh	r3, [r2, #2]
     10a:	4a16      	ldr	r2, [pc, #88]	; (164 <_Z8adc_initv+0x68>)
     10c:	0013      	movs	r3, r2
     10e:	7e51      	ldrb	r1, [r2, #25]
     110:	09c9      	lsrs	r1, r1, #7
     112:	d1fc      	bne.n	10e <_Z8adc_initv+0x12>
     114:	7810      	ldrb	r0, [r2, #0]
     116:	3101      	adds	r1, #1
     118:	4301      	orrs	r1, r0
     11a:	7011      	strb	r1, [r2, #0]
     11c:	7e5a      	ldrb	r2, [r3, #25]
     11e:	09d2      	lsrs	r2, r2, #7
     120:	2a01      	cmp	r2, #1
     122:	d0fb      	beq.n	11c <_Z8adc_initv+0x20>
     124:	781a      	ldrb	r2, [r3, #0]
     126:	07d2      	lsls	r2, r2, #31
     128:	d4f8      	bmi.n	11c <_Z8adc_initv+0x20>
     12a:	2284      	movs	r2, #132	; 0x84
     12c:	00d2      	lsls	r2, r2, #3
     12e:	809a      	strh	r2, [r3, #4]
     130:	223f      	movs	r2, #63	; 0x3f
     132:	70da      	strb	r2, [r3, #3]
     134:	7e5a      	ldrb	r2, [r3, #25]
     136:	09d2      	lsrs	r2, r2, #7
     138:	d1fc      	bne.n	134 <_Z8adc_initv+0x38>
     13a:	21c0      	movs	r1, #192	; 0xc0
     13c:	0149      	lsls	r1, r1, #5
     13e:	6119      	str	r1, [r3, #16]
     140:	709a      	strb	r2, [r3, #2]
     142:	22f0      	movs	r2, #240	; 0xf0
     144:	6919      	ldr	r1, [r3, #16]
     146:	0512      	lsls	r2, r2, #20
     148:	430a      	orrs	r2, r1
     14a:	210f      	movs	r1, #15
     14c:	611a      	str	r2, [r3, #16]
     14e:	785a      	ldrb	r2, [r3, #1]
     150:	438a      	bics	r2, r1
     152:	0011      	movs	r1, r2
     154:	2202      	movs	r2, #2
     156:	430a      	orrs	r2, r1
     158:	705a      	strb	r2, [r3, #1]
     15a:	4770      	bx	lr
     15c:	40000c00 	.word	0x40000c00
     160:	00004013 	.word	0x00004013
     164:	42002000 	.word	0x42002000

00000168 <_Z8adc_readh>:
     168:	b570      	push	{r4, r5, r6, lr}
     16a:	0005      	movs	r5, r0
     16c:	f7ff ffbe 	bl	ec <_Z7syncADCv>
     170:	231f      	movs	r3, #31
     172:	4c13      	ldr	r4, [pc, #76]	; (1c0 <_Z8adc_readh+0x58>)
     174:	401d      	ands	r5, r3
     176:	6920      	ldr	r0, [r4, #16]
     178:	4398      	bics	r0, r3
     17a:	4328      	orrs	r0, r5
     17c:	2502      	movs	r5, #2
     17e:	6120      	str	r0, [r4, #16]
     180:	f7ff ffb4 	bl	ec <_Z7syncADCv>
     184:	7823      	ldrb	r3, [r4, #0]
     186:	432b      	orrs	r3, r5
     188:	7023      	strb	r3, [r4, #0]
     18a:	f7ff ffaf 	bl	ec <_Z7syncADCv>
     18e:	7b23      	ldrb	r3, [r4, #12]
     190:	432b      	orrs	r3, r5
     192:	7323      	strb	r3, [r4, #12]
     194:	2301      	movs	r3, #1
     196:	7623      	strb	r3, [r4, #24]
     198:	f7ff ffa8 	bl	ec <_Z7syncADCv>
     19c:	7b23      	ldrb	r3, [r4, #12]
     19e:	431d      	orrs	r5, r3
     1a0:	7325      	strb	r5, [r4, #12]
     1a2:	7e23      	ldrb	r3, [r4, #24]
     1a4:	07db      	lsls	r3, r3, #31
     1a6:	d5fc      	bpl.n	1a2 <_Z8adc_readh+0x3a>
     1a8:	8b65      	ldrh	r5, [r4, #26]
     1aa:	f7ff ff9f 	bl	ec <_Z7syncADCv>
     1ae:	2202      	movs	r2, #2
     1b0:	7823      	ldrb	r3, [r4, #0]
     1b2:	b2ad      	uxth	r5, r5
     1b4:	4393      	bics	r3, r2
     1b6:	7023      	strb	r3, [r4, #0]
     1b8:	f7ff ff98 	bl	ec <_Z7syncADCv>
     1bc:	0028      	movs	r0, r5
     1be:	bd70      	pop	{r4, r5, r6, pc}
     1c0:	42002000 	.word	0x42002000

000001c4 <_Z13pinPeripheralhm>:
     1c4:	b530      	push	{r4, r5, lr}
     1c6:	2401      	movs	r4, #1
     1c8:	4a0a      	ldr	r2, [pc, #40]	; (1f4 <_Z13pinPeripheralhm+0x30>)
     1ca:	0843      	lsrs	r3, r0, #1
     1cc:	189b      	adds	r3, r3, r2
     1ce:	781a      	ldrb	r2, [r3, #0]
     1d0:	250f      	movs	r5, #15
     1d2:	4220      	tst	r0, r4
     1d4:	d00a      	beq.n	1ec <_Z13pinPeripheralhm+0x28>
     1d6:	402a      	ands	r2, r5
     1d8:	0109      	lsls	r1, r1, #4
     1da:	4311      	orrs	r1, r2
     1dc:	b2c9      	uxtb	r1, r1
     1de:	7019      	strb	r1, [r3, #0]
     1e0:	4b05      	ldr	r3, [pc, #20]	; (1f8 <_Z13pinPeripheralhm+0x34>)
     1e2:	18c0      	adds	r0, r0, r3
     1e4:	7803      	ldrb	r3, [r0, #0]
     1e6:	431c      	orrs	r4, r3
     1e8:	7004      	strb	r4, [r0, #0]
     1ea:	bd30      	pop	{r4, r5, pc}
     1ec:	43aa      	bics	r2, r5
     1ee:	4029      	ands	r1, r5
     1f0:	4311      	orrs	r1, r2
     1f2:	e7f4      	b.n	1de <_Z13pinPeripheralhm+0x1a>
     1f4:	41004430 	.word	0x41004430
     1f8:	41004440 	.word	0x41004440

000001fc <_Z13gpio_set_inenmh>:
     1fc:	b570      	push	{r4, r5, r6, lr}
     1fe:	2300      	movs	r3, #0
     200:	2501      	movs	r5, #1
     202:	2602      	movs	r6, #2
     204:	4a07      	ldr	r2, [pc, #28]	; (224 <_Z13gpio_set_inenmh+0x28>)
     206:	01c9      	lsls	r1, r1, #7
     208:	1889      	adds	r1, r1, r2
     20a:	0002      	movs	r2, r0
     20c:	40da      	lsrs	r2, r3
     20e:	422a      	tst	r2, r5
     210:	d004      	beq.n	21c <_Z13gpio_set_inenmh+0x20>
     212:	18ca      	adds	r2, r1, r3
     214:	3240      	adds	r2, #64	; 0x40
     216:	7814      	ldrb	r4, [r2, #0]
     218:	4334      	orrs	r4, r6
     21a:	7014      	strb	r4, [r2, #0]
     21c:	3301      	adds	r3, #1
     21e:	2b20      	cmp	r3, #32
     220:	d1f3      	bne.n	20a <_Z13gpio_set_inenmh+0xe>
     222:	bd70      	pop	{r4, r5, r6, pc}
     224:	41004400 	.word	0x41004400

00000228 <_Z19gpio_pullenset_bulkmh>:
     228:	b570      	push	{r4, r5, r6, lr}
     22a:	2300      	movs	r3, #0
     22c:	2501      	movs	r5, #1
     22e:	2604      	movs	r6, #4
     230:	4a07      	ldr	r2, [pc, #28]	; (250 <_Z19gpio_pullenset_bulkmh+0x28>)
     232:	01c9      	lsls	r1, r1, #7
     234:	1889      	adds	r1, r1, r2
     236:	0002      	movs	r2, r0
     238:	40da      	lsrs	r2, r3
     23a:	422a      	tst	r2, r5
     23c:	d004      	beq.n	248 <_Z19gpio_pullenset_bulkmh+0x20>
     23e:	18ca      	adds	r2, r1, r3
     240:	3240      	adds	r2, #64	; 0x40
     242:	7814      	ldrb	r4, [r2, #0]
     244:	4334      	orrs	r4, r6
     246:	7014      	strb	r4, [r2, #0]
     248:	3301      	adds	r3, #1
     24a:	2b20      	cmp	r3, #32
     24c:	d1f3      	bne.n	236 <_Z19gpio_pullenset_bulkmh+0xe>
     24e:	bd70      	pop	{r4, r5, r6, pc}
     250:	41004400 	.word	0x41004400

00000254 <_Z19gpio_pullenclr_bulkmh>:
     254:	b570      	push	{r4, r5, r6, lr}
     256:	2300      	movs	r3, #0
     258:	2501      	movs	r5, #1
     25a:	2604      	movs	r6, #4
     25c:	4a07      	ldr	r2, [pc, #28]	; (27c <_Z19gpio_pullenclr_bulkmh+0x28>)
     25e:	01c9      	lsls	r1, r1, #7
     260:	1889      	adds	r1, r1, r2
     262:	0002      	movs	r2, r0
     264:	40da      	lsrs	r2, r3
     266:	422a      	tst	r2, r5
     268:	d004      	beq.n	274 <_Z19gpio_pullenclr_bulkmh+0x20>
     26a:	18ca      	adds	r2, r1, r3
     26c:	3240      	adds	r2, #64	; 0x40
     26e:	7814      	ldrb	r4, [r2, #0]
     270:	43b4      	bics	r4, r6
     272:	7014      	strb	r4, [r2, #0]
     274:	3301      	adds	r3, #1
     276:	2b20      	cmp	r3, #32
     278:	d1f3      	bne.n	262 <_Z19gpio_pullenclr_bulkmh+0xe>
     27a:	bd70      	pop	{r4, r5, r6, pc}
     27c:	41004400 	.word	0x41004400

00000280 <_Z17sendDataSlaveWIREP6Sercomh>:
     280:	0002      	movs	r2, r0
     282:	3228      	adds	r2, #40	; 0x28
     284:	7011      	strb	r1, [r2, #0]
     286:	7e02      	ldrb	r2, [r0, #24]
     288:	0003      	movs	r3, r0
     28a:	2000      	movs	r0, #0
     28c:	0752      	lsls	r2, r2, #29
     28e:	d504      	bpl.n	29a <_Z17sendDataSlaveWIREP6Sercomh+0x1a>
     290:	8b58      	ldrh	r0, [r3, #26]
     292:	2301      	movs	r3, #1
     294:	0740      	lsls	r0, r0, #29
     296:	0fc0      	lsrs	r0, r0, #31
     298:	4058      	eors	r0, r3
     29a:	4770      	bx	lr

0000029c <_Z18prepareNackBitWIREP6Sercom>:
     29c:	2380      	movs	r3, #128	; 0x80
     29e:	6802      	ldr	r2, [r0, #0]
     2a0:	6842      	ldr	r2, [r0, #4]
     2a2:	02db      	lsls	r3, r3, #11
     2a4:	4313      	orrs	r3, r2
     2a6:	6043      	str	r3, [r0, #4]
     2a8:	4770      	bx	lr
	...

000002ac <_Z17prepareAckBitWIREP6Sercom>:
     2ac:	6803      	ldr	r3, [r0, #0]
     2ae:	4a02      	ldr	r2, [pc, #8]	; (2b8 <_Z17prepareAckBitWIREP6Sercom+0xc>)
     2b0:	6843      	ldr	r3, [r0, #4]
     2b2:	4013      	ands	r3, r2
     2b4:	6043      	str	r3, [r0, #4]
     2b6:	4770      	bx	lr
     2b8:	fffbffff 	.word	0xfffbffff

000002bc <_Z22prepareCommandBitsWireP6Sercomh>:
     2bc:	6803      	ldr	r3, [r0, #0]
     2be:	b510      	push	{r4, lr}
     2c0:	06db      	lsls	r3, r3, #27
     2c2:	0f5b      	lsrs	r3, r3, #29
     2c4:	2403      	movs	r4, #3
     2c6:	4a0a      	ldr	r2, [pc, #40]	; (2f0 <_Z22prepareCommandBitsWireP6Sercomh+0x34>)
     2c8:	2b05      	cmp	r3, #5
     2ca:	d109      	bne.n	2e0 <_Z22prepareCommandBitsWireP6Sercomh+0x24>
     2cc:	6843      	ldr	r3, [r0, #4]
     2ce:	4021      	ands	r1, r4
     2d0:	0409      	lsls	r1, r1, #16
     2d2:	4013      	ands	r3, r2
     2d4:	4319      	orrs	r1, r3
     2d6:	6041      	str	r1, [r0, #4]
     2d8:	69c3      	ldr	r3, [r0, #28]
     2da:	075b      	lsls	r3, r3, #29
     2dc:	d4fc      	bmi.n	2d8 <_Z22prepareCommandBitsWireP6Sercomh+0x1c>
     2de:	bd10      	pop	{r4, pc}
     2e0:	6843      	ldr	r3, [r0, #4]
     2e2:	4021      	ands	r1, r4
     2e4:	0409      	lsls	r1, r1, #16
     2e6:	4013      	ands	r3, r2
     2e8:	4319      	orrs	r1, r3
     2ea:	6041      	str	r1, [r0, #4]
     2ec:	e7f7      	b.n	2de <_Z22prepareCommandBitsWireP6Sercomh+0x22>
     2ee:	46c0      	nop			; (mov r8, r8)
     2f0:	fffcffff 	.word	0xfffcffff

000002f4 <_Z12readDataWIREP6Sercom>:
     2f4:	6803      	ldr	r3, [r0, #0]
     2f6:	06db      	lsls	r3, r3, #27
     2f8:	0f5b      	lsrs	r3, r3, #29
     2fa:	2b05      	cmp	r3, #5
     2fc:	d102      	bne.n	304 <_Z12readDataWIREP6Sercom+0x10>
     2fe:	7e03      	ldrb	r3, [r0, #24]
     300:	079b      	lsls	r3, r3, #30
     302:	d5fc      	bpl.n	2fe <_Z12readDataWIREP6Sercom+0xa>
     304:	3028      	adds	r0, #40	; 0x28
     306:	7800      	ldrb	r0, [r0, #0]
     308:	b2c0      	uxtb	r0, r0
     30a:	4770      	bx	lr

0000030c <_Z9initClockP6Sercom>:
     30c:	4a0a      	ldr	r2, [pc, #40]	; (338 <_Z9initClockP6Sercom+0x2c>)
     30e:	230e      	movs	r3, #14
     310:	4290      	cmp	r0, r2
     312:	d004      	beq.n	31e <_Z9initClockP6Sercom+0x12>
     314:	4a09      	ldr	r2, [pc, #36]	; (33c <_Z9initClockP6Sercom+0x30>)
     316:	2300      	movs	r3, #0
     318:	4290      	cmp	r0, r2
     31a:	d100      	bne.n	31e <_Z9initClockP6Sercom+0x12>
     31c:	330f      	adds	r3, #15
     31e:	2280      	movs	r2, #128	; 0x80
     320:	01d2      	lsls	r2, r2, #7
     322:	431a      	orrs	r2, r3
     324:	4b06      	ldr	r3, [pc, #24]	; (340 <_Z9initClockP6Sercom+0x34>)
     326:	805a      	strh	r2, [r3, #2]
     328:	4a06      	ldr	r2, [pc, #24]	; (344 <_Z9initClockP6Sercom+0x38>)
     32a:	805a      	strh	r2, [r3, #2]
     32c:	785a      	ldrb	r2, [r3, #1]
     32e:	b252      	sxtb	r2, r2
     330:	2a00      	cmp	r2, #0
     332:	dbfb      	blt.n	32c <_Z9initClockP6Sercom+0x20>
     334:	4770      	bx	lr
     336:	46c0      	nop			; (mov r8, r8)
     338:	42000800 	.word	0x42000800
     33c:	42000c00 	.word	0x42000c00
     340:	40000c00 	.word	0x40000c00
     344:	0000410d 	.word	0x0000410d

00000348 <_Z9resetWIREP6Sercom>:
     348:	2301      	movs	r3, #1
     34a:	6802      	ldr	r2, [r0, #0]
     34c:	4313      	orrs	r3, r2
     34e:	6003      	str	r3, [r0, #0]
     350:	6803      	ldr	r3, [r0, #0]
     352:	07db      	lsls	r3, r3, #31
     354:	d4fc      	bmi.n	350 <_Z9resetWIREP6Sercom+0x8>
     356:	69c3      	ldr	r3, [r0, #28]
     358:	07db      	lsls	r3, r3, #31
     35a:	d4f9      	bmi.n	350 <_Z9resetWIREP6Sercom+0x8>
     35c:	4770      	bx	lr

0000035e <_Z10enableWIREP6Sercom>:
     35e:	2302      	movs	r3, #2
     360:	6802      	ldr	r2, [r0, #0]
     362:	4313      	orrs	r3, r2
     364:	6003      	str	r3, [r0, #0]
     366:	69c3      	ldr	r3, [r0, #28]
     368:	079b      	lsls	r3, r3, #30
     36a:	d4fc      	bmi.n	366 <_Z10enableWIREP6Sercom+0x8>
     36c:	2230      	movs	r2, #48	; 0x30
     36e:	8b43      	ldrh	r3, [r0, #26]
     370:	4393      	bics	r3, r2
     372:	001a      	movs	r2, r3
     374:	2310      	movs	r3, #16
     376:	4313      	orrs	r3, r2
     378:	8343      	strh	r3, [r0, #26]
     37a:	69c3      	ldr	r3, [r0, #28]
     37c:	075b      	lsls	r3, r3, #29
     37e:	d4fc      	bmi.n	37a <_Z10enableWIREP6Sercom+0x1c>
     380:	4770      	bx	lr

00000382 <_Z13initSlaveWIREP6Sercomh>:
     382:	b570      	push	{r4, r5, r6, lr}
     384:	0004      	movs	r4, r0
     386:	000d      	movs	r5, r1
     388:	f7ff ffc0 	bl	30c <_Z9initClockP6Sercom>
     38c:	0020      	movs	r0, r4
     38e:	f7ff ffdb 	bl	348 <_Z9resetWIREP6Sercom>
     392:	221c      	movs	r2, #28
     394:	6823      	ldr	r3, [r4, #0]
     396:	006d      	lsls	r5, r5, #1
     398:	4393      	bics	r3, r2
     39a:	001a      	movs	r2, r3
     39c:	2310      	movs	r3, #16
     39e:	4313      	orrs	r3, r2
     3a0:	6023      	str	r3, [r4, #0]
     3a2:	23ff      	movs	r3, #255	; 0xff
     3a4:	401d      	ands	r5, r3
     3a6:	3bf8      	subs	r3, #248	; 0xf8
     3a8:	6265      	str	r5, [r4, #36]	; 0x24
     3aa:	75a3      	strb	r3, [r4, #22]
     3ac:	69e3      	ldr	r3, [r4, #28]
     3ae:	075b      	lsls	r3, r3, #29
     3b0:	d4fc      	bmi.n	3ac <_Z13initSlaveWIREP6Sercomh+0x2a>
     3b2:	bd70      	pop	{r4, r5, r6, pc}

000003b4 <Dummy_Handler>:
     3b4:	e7fe      	b.n	3b4 <Dummy_Handler>
	...

000003b8 <Reset_Handler>:
     3b8:	481d      	ldr	r0, [pc, #116]	; (430 <STACK_SIZE+0x30>)
     3ba:	491e      	ldr	r1, [pc, #120]	; (434 <STACK_SIZE+0x34>)
     3bc:	b570      	push	{r4, r5, r6, lr}
     3be:	4288      	cmp	r0, r1
     3c0:	d004      	beq.n	3cc <Reset_Handler+0x14>
     3c2:	2300      	movs	r3, #0
     3c4:	4c1c      	ldr	r4, [pc, #112]	; (438 <STACK_SIZE+0x38>)
     3c6:	18ca      	adds	r2, r1, r3
     3c8:	42a2      	cmp	r2, r4
     3ca:	d32a      	bcc.n	422 <STACK_SIZE+0x22>
     3cc:	2100      	movs	r1, #0
     3ce:	4b1b      	ldr	r3, [pc, #108]	; (43c <STACK_SIZE+0x3c>)
     3d0:	4a1b      	ldr	r2, [pc, #108]	; (440 <STACK_SIZE+0x40>)
     3d2:	4293      	cmp	r3, r2
     3d4:	d329      	bcc.n	42a <STACK_SIZE+0x2a>
     3d6:	21ff      	movs	r1, #255	; 0xff
     3d8:	4b1a      	ldr	r3, [pc, #104]	; (444 <STACK_SIZE+0x44>)
     3da:	4a1b      	ldr	r2, [pc, #108]	; (448 <STACK_SIZE+0x48>)
     3dc:	438b      	bics	r3, r1
     3de:	6093      	str	r3, [r2, #8]
     3e0:	2202      	movs	r2, #2
     3e2:	2030      	movs	r0, #48	; 0x30
     3e4:	4b19      	ldr	r3, [pc, #100]	; (44c <STACK_SIZE+0x4c>)
     3e6:	625a      	str	r2, [r3, #36]	; 0x24
     3e8:	4b19      	ldr	r3, [pc, #100]	; (450 <STACK_SIZE+0x50>)
     3ea:	7b99      	ldrb	r1, [r3, #14]
     3ec:	4381      	bics	r1, r0
     3ee:	0008      	movs	r0, r1
     3f0:	2120      	movs	r1, #32
     3f2:	4301      	orrs	r1, r0
     3f4:	200c      	movs	r0, #12
     3f6:	7399      	strb	r1, [r3, #14]
     3f8:	7b99      	ldrb	r1, [r3, #14]
     3fa:	4381      	bics	r1, r0
     3fc:	0008      	movs	r0, r1
     3fe:	2108      	movs	r1, #8
     400:	4301      	orrs	r1, r0
     402:	2003      	movs	r0, #3
     404:	7399      	strb	r1, [r3, #14]
     406:	7b99      	ldrb	r1, [r3, #14]
     408:	4381      	bics	r1, r0
     40a:	430a      	orrs	r2, r1
     40c:	739a      	strb	r2, [r3, #14]
     40e:	2380      	movs	r3, #128	; 0x80
     410:	4a10      	ldr	r2, [pc, #64]	; (454 <STACK_SIZE+0x54>)
     412:	6851      	ldr	r1, [r2, #4]
     414:	430b      	orrs	r3, r1
     416:	6053      	str	r3, [r2, #4]
     418:	f002 fd8c 	bl	2f34 <__libc_init_array>
     41c:	f000 f8f0 	bl	600 <main>
     420:	e7fe      	b.n	420 <STACK_SIZE+0x20>
     422:	58c5      	ldr	r5, [r0, r3]
     424:	3304      	adds	r3, #4
     426:	6015      	str	r5, [r2, #0]
     428:	e7cd      	b.n	3c6 <Reset_Handler+0xe>
     42a:	c302      	stmia	r3!, {r1}
     42c:	e7d1      	b.n	3d2 <Reset_Handler+0x1a>
     42e:	46c0      	nop			; (mov r8, r8)
     430:	00003384 	.word	0x00003384
     434:	20000000 	.word	0x20000000
     438:	2000006c 	.word	0x2000006c
     43c:	2000006c 	.word	0x2000006c
     440:	20000814 	.word	0x20000814
     444:	00000000 	.word	0x00000000
     448:	e000ed00 	.word	0xe000ed00
     44c:	410070fc 	.word	0x410070fc
     450:	41004800 	.word	0x41004800
     454:	41004000 	.word	0x41004000

00000458 <SystemInit>:
     458:	4a01      	ldr	r2, [pc, #4]	; (460 <SystemInit+0x8>)
     45a:	4b02      	ldr	r3, [pc, #8]	; (464 <SystemInit+0xc>)
     45c:	601a      	str	r2, [r3, #0]
     45e:	4770      	bx	lr
     460:	000f4240 	.word	0x000f4240
     464:	20000004 	.word	0x20000004

00000468 <_ZN2QP4QHsm4initEv>:
     468:	b510      	push	{r4, lr}
     46a:	6803      	ldr	r3, [r0, #0]
     46c:	2100      	movs	r1, #0
     46e:	689b      	ldr	r3, [r3, #8]
     470:	4798      	blx	r3
     472:	bd10      	pop	{r4, pc}

00000474 <_ZN2QP7QActive5startEjPPKNS_4QEvtEjPvj>:
     474:	b530      	push	{r4, r5, lr}
     476:	2500      	movs	r5, #0
     478:	b085      	sub	sp, #20
     47a:	9502      	str	r5, [sp, #8]
     47c:	9d09      	ldr	r5, [sp, #36]	; 0x24
     47e:	6804      	ldr	r4, [r0, #0]
     480:	9501      	str	r5, [sp, #4]
     482:	9d08      	ldr	r5, [sp, #32]
     484:	9500      	str	r5, [sp, #0]
     486:	6964      	ldr	r4, [r4, #20]
     488:	47a0      	blx	r4
     48a:	b005      	add	sp, #20
     48c:	bd30      	pop	{r4, r5, pc}
	...

00000490 <_Z10board_initv>:
     490:	221e      	movs	r2, #30
     492:	b570      	push	{r4, r5, r6, lr}
     494:	484b      	ldr	r0, [pc, #300]	; (5c4 <_Z10board_initv+0x134>)
     496:	494c      	ldr	r1, [pc, #304]	; (5c8 <_Z10board_initv+0x138>)
     498:	6843      	ldr	r3, [r0, #4]
     49a:	4d4c      	ldr	r5, [pc, #304]	; (5cc <_Z10board_initv+0x13c>)
     49c:	4393      	bics	r3, r2
     49e:	001a      	movs	r2, r3
     4a0:	2302      	movs	r3, #2
     4a2:	4313      	orrs	r3, r2
     4a4:	6043      	str	r3, [r0, #4]
     4a6:	2308      	movs	r3, #8
     4a8:	698a      	ldr	r2, [r1, #24]
     4aa:	4313      	orrs	r3, r2
     4ac:	22fe      	movs	r2, #254	; 0xfe
     4ae:	618b      	str	r3, [r1, #24]
     4b0:	682b      	ldr	r3, [r5, #0]
     4b2:	03d2      	lsls	r2, r2, #15
     4b4:	029b      	lsls	r3, r3, #10
     4b6:	4013      	ands	r3, r2
     4b8:	4a45      	ldr	r2, [pc, #276]	; (5d0 <_Z10board_initv+0x140>)
     4ba:	4313      	orrs	r3, r2
     4bc:	4a45      	ldr	r2, [pc, #276]	; (5d4 <_Z10board_initv+0x144>)
     4be:	6193      	str	r3, [r2, #24]
     4c0:	0013      	movs	r3, r2
     4c2:	2204      	movs	r2, #4
     4c4:	68dc      	ldr	r4, [r3, #12]
     4c6:	4214      	tst	r4, r2
     4c8:	d0fc      	beq.n	4c4 <_Z10board_initv+0x34>
     4ca:	2401      	movs	r4, #1
     4cc:	4a42      	ldr	r2, [pc, #264]	; (5d8 <_Z10board_initv+0x148>)
     4ce:	7014      	strb	r4, [r2, #0]
     4d0:	7816      	ldrb	r6, [r2, #0]
     4d2:	4226      	tst	r6, r4
     4d4:	d003      	beq.n	4de <_Z10board_initv+0x4e>
     4d6:	7856      	ldrb	r6, [r2, #1]
     4d8:	b276      	sxtb	r6, r6
     4da:	2e00      	cmp	r6, #0
     4dc:	dbf8      	blt.n	4d0 <_Z10board_initv+0x40>
     4de:	2401      	movs	r4, #1
     4e0:	6094      	str	r4, [r2, #8]
     4e2:	7854      	ldrb	r4, [r2, #1]
     4e4:	b264      	sxtb	r4, r4
     4e6:	2c00      	cmp	r4, #0
     4e8:	dbfb      	blt.n	4e2 <_Z10board_initv+0x52>
     4ea:	4c3c      	ldr	r4, [pc, #240]	; (5dc <_Z10board_initv+0x14c>)
     4ec:	6054      	str	r4, [r2, #4]
     4ee:	7854      	ldrb	r4, [r2, #1]
     4f0:	b264      	sxtb	r4, r4
     4f2:	2c00      	cmp	r4, #0
     4f4:	dbfb      	blt.n	4ee <_Z10board_initv+0x5e>
     4f6:	2482      	movs	r4, #130	; 0x82
     4f8:	01e4      	lsls	r4, r4, #7
     4fa:	8054      	strh	r4, [r2, #2]
     4fc:	7854      	ldrb	r4, [r2, #1]
     4fe:	b264      	sxtb	r4, r4
     500:	2c00      	cmp	r4, #0
     502:	dbfb      	blt.n	4fc <_Z10board_initv+0x6c>
     504:	2680      	movs	r6, #128	; 0x80
     506:	8c9c      	ldrh	r4, [r3, #36]	; 0x24
     508:	43b4      	bics	r4, r6
     50a:	849c      	strh	r4, [r3, #36]	; 0x24
     50c:	2410      	movs	r4, #16
     50e:	68de      	ldr	r6, [r3, #12]
     510:	4226      	tst	r6, r4
     512:	d0fc      	beq.n	50e <_Z10board_initv+0x7e>
     514:	4c32      	ldr	r4, [pc, #200]	; (5e0 <_Z10board_initv+0x150>)
     516:	62dc      	str	r4, [r3, #44]	; 0x2c
     518:	2410      	movs	r4, #16
     51a:	68de      	ldr	r6, [r3, #12]
     51c:	4226      	tst	r6, r4
     51e:	d0fc      	beq.n	51a <_Z10board_initv+0x8a>
     520:	682c      	ldr	r4, [r5, #0]
     522:	0ea4      	lsrs	r4, r4, #26
     524:	2c3f      	cmp	r4, #63	; 0x3f
     526:	d04a      	beq.n	5be <_Z10board_initv+0x12e>
     528:	2680      	movs	r6, #128	; 0x80
     52a:	02a4      	lsls	r4, r4, #10
     52c:	00b6      	lsls	r6, r6, #2
     52e:	4334      	orrs	r4, r6
     530:	629c      	str	r4, [r3, #40]	; 0x28
     532:	24b2      	movs	r4, #178	; 0xb2
     534:	0124      	lsls	r4, r4, #4
     536:	849c      	strh	r4, [r3, #36]	; 0x24
     538:	2410      	movs	r4, #16
     53a:	68de      	ldr	r6, [r3, #12]
     53c:	4226      	tst	r6, r4
     53e:	d0fc      	beq.n	53a <_Z10board_initv+0xaa>
     540:	2402      	movs	r4, #2
     542:	8c9e      	ldrh	r6, [r3, #36]	; 0x24
     544:	4334      	orrs	r4, r6
     546:	849c      	strh	r4, [r3, #36]	; 0x24
     548:	2410      	movs	r4, #16
     54a:	68de      	ldr	r6, [r3, #12]
     54c:	4226      	tst	r6, r4
     54e:	d0fc      	beq.n	54a <_Z10board_initv+0xba>
     550:	2400      	movs	r4, #0
     552:	6094      	str	r4, [r2, #8]
     554:	7854      	ldrb	r4, [r2, #1]
     556:	b264      	sxtb	r4, r4
     558:	2c00      	cmp	r4, #0
     55a:	dbfb      	blt.n	554 <_Z10board_initv+0xc4>
     55c:	4c21      	ldr	r4, [pc, #132]	; (5e4 <_Z10board_initv+0x154>)
     55e:	6054      	str	r4, [r2, #4]
     560:	7854      	ldrb	r4, [r2, #1]
     562:	b264      	sxtb	r4, r4
     564:	2c00      	cmp	r4, #0
     566:	dbfb      	blt.n	560 <_Z10board_initv+0xd0>
     568:	6a1c      	ldr	r4, [r3, #32]
     56a:	4e1f      	ldr	r6, [pc, #124]	; (5e8 <_Z10board_initv+0x158>)
     56c:	4034      	ands	r4, r6
     56e:	2680      	movs	r6, #128	; 0x80
     570:	621c      	str	r4, [r3, #32]
     572:	6a1c      	ldr	r4, [r3, #32]
     574:	43b4      	bics	r4, r6
     576:	621c      	str	r4, [r3, #32]
     578:	2303      	movs	r3, #3
     57a:	6093      	str	r3, [r2, #8]
     57c:	4b1b      	ldr	r3, [pc, #108]	; (5ec <_Z10board_initv+0x15c>)
     57e:	6053      	str	r3, [r2, #4]
     580:	7853      	ldrb	r3, [r2, #1]
     582:	b25b      	sxtb	r3, r3
     584:	2b00      	cmp	r3, #0
     586:	dbfb      	blt.n	580 <_Z10board_initv+0xf0>
     588:	2300      	movs	r3, #0
     58a:	24ff      	movs	r4, #255	; 0xff
     58c:	720b      	strb	r3, [r1, #8]
     58e:	4a18      	ldr	r2, [pc, #96]	; (5f0 <_Z10board_initv+0x160>)
     590:	724b      	strb	r3, [r1, #9]
     592:	728b      	strb	r3, [r1, #10]
     594:	72cb      	strb	r3, [r1, #11]
     596:	4b17      	ldr	r3, [pc, #92]	; (5f4 <_Z10board_initv+0x164>)
     598:	601a      	str	r2, [r3, #0]
     59a:	4a17      	ldr	r2, [pc, #92]	; (5f8 <_Z10board_initv+0x168>)
     59c:	682b      	ldr	r3, [r5, #0]
     59e:	6812      	ldr	r2, [r2, #0]
     5a0:	0159      	lsls	r1, r3, #5
     5a2:	069b      	lsls	r3, r3, #26
     5a4:	4021      	ands	r1, r4
     5a6:	0ed2      	lsrs	r2, r2, #27
     5a8:	0f5b      	lsrs	r3, r3, #29
     5aa:	430a      	orrs	r2, r1
     5ac:	021b      	lsls	r3, r3, #8
     5ae:	4313      	orrs	r3, r2
     5b0:	4a12      	ldr	r2, [pc, #72]	; (5fc <_Z10board_initv+0x16c>)
     5b2:	8513      	strh	r3, [r2, #40]	; 0x28
     5b4:	2380      	movs	r3, #128	; 0x80
     5b6:	6842      	ldr	r2, [r0, #4]
     5b8:	4313      	orrs	r3, r2
     5ba:	6043      	str	r3, [r0, #4]
     5bc:	bd70      	pop	{r4, r5, r6, pc}
     5be:	24fc      	movs	r4, #252	; 0xfc
     5c0:	01e4      	lsls	r4, r4, #7
     5c2:	e7b5      	b.n	530 <_Z10board_initv+0xa0>
     5c4:	41004000 	.word	0x41004000
     5c8:	40000400 	.word	0x40000400
     5cc:	00806024 	.word	0x00806024
     5d0:	00000606 	.word	0x00000606
     5d4:	40000800 	.word	0x40000800
     5d8:	40000c00 	.word	0x40000c00
     5dc:	00010401 	.word	0x00010401
     5e0:	7dff05b8 	.word	0x7dff05b8
     5e4:	00030700 	.word	0x00030700
     5e8:	fffffcff 	.word	0xfffffcff
     5ec:	00010603 	.word	0x00010603
     5f0:	02dc6c00 	.word	0x02dc6c00
     5f4:	20000004 	.word	0x20000004
     5f8:	00806020 	.word	0x00806020
     5fc:	42002000 	.word	0x42002000

00000600 <main>:
     600:	b513      	push	{r0, r1, r4, lr}
     602:	2480      	movs	r4, #128	; 0x80
     604:	0064      	lsls	r4, r4, #1
     606:	f7ff ff27 	bl	458 <SystemInit>
     60a:	f7ff ff41 	bl	490 <_Z10board_initv>
     60e:	f000 ff95 	bl	153c <_ZN2QP2QF4initEv>
     612:	0021      	movs	r1, r4
     614:	2210      	movs	r2, #16
     616:	4826      	ldr	r0, [pc, #152]	; (6b0 <main+0xb0>)
     618:	f000 fc8e 	bl	f38 <_ZN2QP2QF8poolInitEPvjj>
     61c:	0021      	movs	r1, r4
     61e:	2220      	movs	r2, #32
     620:	4824      	ldr	r0, [pc, #144]	; (6b4 <main+0xb4>)
     622:	f000 fc89 	bl	f38 <_ZN2QP2QF8poolInitEPvjj>
     626:	2240      	movs	r2, #64	; 0x40
     628:	4823      	ldr	r0, [pc, #140]	; (6b8 <main+0xb8>)
     62a:	0011      	movs	r1, r2
     62c:	f000 fc84 	bl	f38 <_ZN2QP2QF8poolInitEPvjj>
     630:	2149      	movs	r1, #73	; 0x49
     632:	4822      	ldr	r0, [pc, #136]	; (6bc <main+0xbc>)
     634:	f000 fdde 	bl	11f4 <_ZN2QP2QF6psInitEPNS_5QPSetEi>
     638:	f000 f90e 	bl	858 <_Z7BspInitv>
     63c:	4820      	ldr	r0, [pc, #128]	; (6c0 <main+0xc0>)
     63e:	2400      	movs	r4, #0
     640:	0002      	movs	r2, r0
     642:	9401      	str	r4, [sp, #4]
     644:	3234      	adds	r2, #52	; 0x34
     646:	9400      	str	r4, [sp, #0]
     648:	2310      	movs	r3, #16
     64a:	2116      	movs	r1, #22
     64c:	f7ff ff12 	bl	474 <_ZN2QP7QActive5startEjPPKNS_4QEvtEjPvj>
     650:	481c      	ldr	r0, [pc, #112]	; (6c4 <main+0xc4>)
     652:	9401      	str	r4, [sp, #4]
     654:	0002      	movs	r2, r0
     656:	9400      	str	r4, [sp, #0]
     658:	3234      	adds	r2, #52	; 0x34
     65a:	2310      	movs	r3, #16
     65c:	211e      	movs	r1, #30
     65e:	f7ff ff09 	bl	474 <_ZN2QP7QActive5startEjPPKNS_4QEvtEjPvj>
     662:	4819      	ldr	r0, [pc, #100]	; (6c8 <main+0xc8>)
     664:	9401      	str	r4, [sp, #4]
     666:	0002      	movs	r2, r0
     668:	9400      	str	r4, [sp, #0]
     66a:	3234      	adds	r2, #52	; 0x34
     66c:	2310      	movs	r3, #16
     66e:	211b      	movs	r1, #27
     670:	f7ff ff00 	bl	474 <_ZN2QP7QActive5startEjPPKNS_4QEvtEjPvj>
     674:	4815      	ldr	r0, [pc, #84]	; (6cc <main+0xcc>)
     676:	9401      	str	r4, [sp, #4]
     678:	0002      	movs	r2, r0
     67a:	9400      	str	r4, [sp, #0]
     67c:	3234      	adds	r2, #52	; 0x34
     67e:	2308      	movs	r3, #8
     680:	2118      	movs	r1, #24
     682:	f7ff fef7 	bl	474 <_ZN2QP7QActive5startEjPPKNS_4QEvtEjPvj>
     686:	4812      	ldr	r0, [pc, #72]	; (6d0 <main+0xd0>)
     688:	211f      	movs	r1, #31
     68a:	0002      	movs	r2, r0
     68c:	2308      	movs	r3, #8
     68e:	3234      	adds	r2, #52	; 0x34
     690:	9401      	str	r4, [sp, #4]
     692:	9400      	str	r4, [sp, #0]
     694:	f7ff feee 	bl	474 <_ZN2QP7QActive5startEjPPKNS_4QEvtEjPvj>
     698:	2006      	movs	r0, #6
     69a:	f000 f971 	bl	980 <_ZN2FW3EvtnwEj>
     69e:	2304      	movs	r3, #4
     6a0:	8084      	strh	r4, [r0, #4]
     6a2:	8003      	strh	r3, [r0, #0]
     6a4:	f000 fdb4 	bl	1210 <_ZN2QP2QF8publish_EPKNS_4QEvtE>
     6a8:	f000 fff0 	bl	168c <_ZN2QP2QF3runEv>
     6ac:	0020      	movs	r0, r4
     6ae:	bd16      	pop	{r1, r2, r4, pc}
     6b0:	20000488 	.word	0x20000488
     6b4:	20000388 	.word	0x20000388
     6b8:	20000348 	.word	0x20000348
     6bc:	20000588 	.word	0x20000588
     6c0:	200001f4 	.word	0x200001f4
     6c4:	200000e8 	.word	0x200000e8
     6c8:	20000164 	.word	0x20000164
     6cc:	20000088 	.word	0x20000088
     6d0:	200002e4 	.word	0x200002e4

000006d4 <_ZN2QP7QActiveD1Ev>:
     6d4:	b510      	push	{r4, lr}
     6d6:	0004      	movs	r4, r0
     6d8:	4b02      	ldr	r3, [pc, #8]	; (6e4 <_ZN2QP7QActiveD1Ev+0x10>)
     6da:	6003      	str	r3, [r0, #0]
     6dc:	f000 f9d7 	bl	a8e <_ZN2QP4QHsmD1Ev>
     6e0:	0020      	movs	r0, r4
     6e2:	bd10      	pop	{r4, pc}
     6e4:	000032a0 	.word	0x000032a0

000006e8 <_ZN11AOInterruptD1Ev>:
     6e8:	b510      	push	{r4, lr}
     6ea:	0004      	movs	r4, r0
     6ec:	4b02      	ldr	r3, [pc, #8]	; (6f8 <_ZN11AOInterruptD1Ev+0x10>)
     6ee:	6003      	str	r3, [r0, #0]
     6f0:	f7ff fff0 	bl	6d4 <_ZN2QP7QActiveD1Ev>
     6f4:	0020      	movs	r0, r4
     6f6:	bd10      	pop	{r4, pc}
     6f8:	000030f4 	.word	0x000030f4

000006fc <_ZN11AOInterruptD0Ev>:
     6fc:	b510      	push	{r4, lr}
     6fe:	0004      	movs	r4, r0
     700:	f7ff fff2 	bl	6e8 <_ZN11AOInterruptD1Ev>
     704:	0020      	movs	r0, r4
     706:	2164      	movs	r1, #100	; 0x64
     708:	f002 fb67 	bl	2dda <_ZdlPvj>
     70c:	0020      	movs	r0, r4
     70e:	bd10      	pop	{r4, pc}

00000710 <_ZN5AOADCD1Ev>:
     710:	b510      	push	{r4, lr}
     712:	0004      	movs	r4, r0
     714:	4b02      	ldr	r3, [pc, #8]	; (720 <_ZN5AOADCD1Ev+0x10>)
     716:	6003      	str	r3, [r0, #0]
     718:	f7ff ffdc 	bl	6d4 <_ZN2QP7QActiveD1Ev>
     71c:	0020      	movs	r0, r4
     71e:	bd10      	pop	{r4, pc}
     720:	000030c8 	.word	0x000030c8

00000724 <_ZN5AOADCD0Ev>:
     724:	b510      	push	{r4, lr}
     726:	0004      	movs	r4, r0
     728:	f7ff fff2 	bl	710 <_ZN5AOADCD1Ev>
     72c:	0020      	movs	r0, r4
     72e:	2160      	movs	r1, #96	; 0x60
     730:	f002 fb53 	bl	2dda <_ZdlPvj>
     734:	0020      	movs	r0, r4
     736:	bd10      	pop	{r4, pc}

00000738 <_ZN8I2CSlaveD1Ev>:
     738:	b510      	push	{r4, lr}
     73a:	0004      	movs	r4, r0
     73c:	4b02      	ldr	r3, [pc, #8]	; (748 <_ZN8I2CSlaveD1Ev+0x10>)
     73e:	6003      	str	r3, [r0, #0]
     740:	f7ff ffc8 	bl	6d4 <_ZN2QP7QActiveD1Ev>
     744:	0020      	movs	r0, r4
     746:	bd10      	pop	{r4, pc}
     748:	0000309c 	.word	0x0000309c

0000074c <_ZN8I2CSlaveD0Ev>:
     74c:	b510      	push	{r4, lr}
     74e:	0004      	movs	r4, r0
     750:	f7ff fff2 	bl	738 <_ZN8I2CSlaveD1Ev>
     754:	0020      	movs	r0, r4
     756:	2190      	movs	r1, #144	; 0x90
     758:	f002 fb3f 	bl	2dda <_ZdlPvj>
     75c:	0020      	movs	r0, r4
     75e:	bd10      	pop	{r4, pc}

00000760 <_ZN8DelegateD1Ev>:
     760:	b510      	push	{r4, lr}
     762:	0004      	movs	r4, r0
     764:	4b02      	ldr	r3, [pc, #8]	; (770 <_ZN8DelegateD1Ev+0x10>)
     766:	6003      	str	r3, [r0, #0]
     768:	f7ff ffb4 	bl	6d4 <_ZN2QP7QActiveD1Ev>
     76c:	0020      	movs	r0, r4
     76e:	bd10      	pop	{r4, pc}
     770:	00003070 	.word	0x00003070

00000774 <_ZN8DelegateD0Ev>:
     774:	b510      	push	{r4, lr}
     776:	0004      	movs	r4, r0
     778:	f7ff fff2 	bl	760 <_ZN8DelegateD1Ev>
     77c:	0020      	movs	r0, r4
     77e:	217c      	movs	r1, #124	; 0x7c
     780:	f002 fb2b 	bl	2dda <_ZdlPvj>
     784:	0020      	movs	r0, r4
     786:	bd10      	pop	{r4, pc}

00000788 <_ZN6SystemD1Ev>:
     788:	b510      	push	{r4, lr}
     78a:	0004      	movs	r4, r0
     78c:	4b02      	ldr	r3, [pc, #8]	; (798 <_ZN6SystemD1Ev+0x10>)
     78e:	6003      	str	r3, [r0, #0]
     790:	f7ff ffa0 	bl	6d4 <_ZN2QP7QActiveD1Ev>
     794:	0020      	movs	r0, r4
     796:	bd10      	pop	{r4, pc}
     798:	00003044 	.word	0x00003044

0000079c <_ZN6SystemD0Ev>:
     79c:	b510      	push	{r4, lr}
     79e:	0004      	movs	r4, r0
     7a0:	f7ff fff2 	bl	788 <_ZN6SystemD1Ev>
     7a4:	0020      	movs	r0, r4
     7a6:	21f0      	movs	r1, #240	; 0xf0
     7a8:	f002 fb17 	bl	2dda <_ZdlPvj>
     7ac:	0020      	movs	r0, r4
     7ae:	bd10      	pop	{r4, pc}

000007b0 <_ZN2QP7QActiveD0Ev>:
     7b0:	b510      	push	{r4, lr}
     7b2:	0004      	movs	r4, r0
     7b4:	f7ff ff8e 	bl	6d4 <_ZN2QP7QActiveD1Ev>
     7b8:	0020      	movs	r0, r4
     7ba:	2134      	movs	r1, #52	; 0x34
     7bc:	f002 fb0d 	bl	2dda <_ZdlPvj>
     7c0:	0020      	movs	r0, r4
     7c2:	bd10      	pop	{r4, pc}

000007c4 <_GLOBAL__sub_I__Z10board_initv>:
     7c4:	b570      	push	{r4, r5, r6, lr}
     7c6:	4d18      	ldr	r5, [pc, #96]	; (828 <_GLOBAL__sub_I__Z10board_initv+0x64>)
     7c8:	0028      	movs	r0, r5
     7ca:	f002 f9cd 	bl	2b68 <_ZN6SystemC1Ev>
     7ce:	4c17      	ldr	r4, [pc, #92]	; (82c <_GLOBAL__sub_I__Z10board_initv+0x68>)
     7d0:	4917      	ldr	r1, [pc, #92]	; (830 <_GLOBAL__sub_I__Z10board_initv+0x6c>)
     7d2:	0022      	movs	r2, r4
     7d4:	0028      	movs	r0, r5
     7d6:	f002 faf9 	bl	2dcc <__aeabi_atexit>
     7da:	4d16      	ldr	r5, [pc, #88]	; (834 <_GLOBAL__sub_I__Z10board_initv+0x70>)
     7dc:	0028      	movs	r0, r5
     7de:	f001 fb67 	bl	1eb0 <_ZN8DelegateC1Ev>
     7e2:	0022      	movs	r2, r4
     7e4:	4914      	ldr	r1, [pc, #80]	; (838 <_GLOBAL__sub_I__Z10board_initv+0x74>)
     7e6:	0028      	movs	r0, r5
     7e8:	f002 faf0 	bl	2dcc <__aeabi_atexit>
     7ec:	4d13      	ldr	r5, [pc, #76]	; (83c <_GLOBAL__sub_I__Z10board_initv+0x78>)
     7ee:	4914      	ldr	r1, [pc, #80]	; (840 <_GLOBAL__sub_I__Z10board_initv+0x7c>)
     7f0:	0028      	movs	r0, r5
     7f2:	f001 febf 	bl	2574 <_ZN8I2CSlaveC1EP6Sercom>
     7f6:	0022      	movs	r2, r4
     7f8:	4912      	ldr	r1, [pc, #72]	; (844 <_GLOBAL__sub_I__Z10board_initv+0x80>)
     7fa:	0028      	movs	r0, r5
     7fc:	f002 fae6 	bl	2dcc <__aeabi_atexit>
     800:	4d11      	ldr	r5, [pc, #68]	; (848 <_GLOBAL__sub_I__Z10board_initv+0x84>)
     802:	0028      	movs	r0, r5
     804:	f001 f876 	bl	18f4 <_ZN5AOADCC1Ev>
     808:	0022      	movs	r2, r4
     80a:	4910      	ldr	r1, [pc, #64]	; (84c <_GLOBAL__sub_I__Z10board_initv+0x88>)
     80c:	0028      	movs	r0, r5
     80e:	f002 fadd 	bl	2dcc <__aeabi_atexit>
     812:	4d0f      	ldr	r5, [pc, #60]	; (850 <_GLOBAL__sub_I__Z10board_initv+0x8c>)
     814:	0028      	movs	r0, r5
     816:	f001 fa9d 	bl	1d54 <_ZN11AOInterruptC1Ev>
     81a:	0028      	movs	r0, r5
     81c:	0022      	movs	r2, r4
     81e:	490d      	ldr	r1, [pc, #52]	; (854 <_GLOBAL__sub_I__Z10board_initv+0x90>)
     820:	f002 fad4 	bl	2dcc <__aeabi_atexit>
     824:	bd70      	pop	{r4, r5, r6, pc}
     826:	46c0      	nop			; (mov r8, r8)
     828:	200001f4 	.word	0x200001f4
     82c:	20000000 	.word	0x20000000
     830:	00000789 	.word	0x00000789
     834:	200000e8 	.word	0x200000e8
     838:	00000761 	.word	0x00000761
     83c:	20000164 	.word	0x20000164
     840:	42000c00 	.word	0x42000c00
     844:	00000739 	.word	0x00000739
     848:	20000088 	.word	0x20000088
     84c:	00000711 	.word	0x00000711
     850:	200002e4 	.word	0x200002e4
     854:	000006e9 	.word	0x000006e9

00000858 <_Z7BspInitv>:
     858:	23cc      	movs	r3, #204	; 0xcc
     85a:	209e      	movs	r0, #158	; 0x9e
     85c:	4a05      	ldr	r2, [pc, #20]	; (874 <_Z7BspInitv+0x1c>)
     85e:	6a11      	ldr	r1, [r2, #32]
     860:	430b      	orrs	r3, r1
     862:	6213      	str	r3, [r2, #32]
     864:	4a04      	ldr	r2, [pc, #16]	; (878 <_Z7BspInitv+0x20>)
     866:	6851      	ldr	r1, [r2, #4]
     868:	6853      	ldr	r3, [r2, #4]
     86a:	4381      	bics	r1, r0
     86c:	4003      	ands	r3, r0
     86e:	430b      	orrs	r3, r1
     870:	6053      	str	r3, [r2, #4]
     872:	4770      	bx	lr
     874:	40000400 	.word	0x40000400
     878:	41004000 	.word	0x41004000

0000087c <SysTick_Handler>:
     87c:	b570      	push	{r4, r5, r6, lr}
     87e:	2000      	movs	r0, #0
     880:	f000 fd8a 	bl	1398 <_ZN2QP2QF6tickX_Ej>
     884:	4b0f      	ldr	r3, [pc, #60]	; (8c4 <SysTick_Handler+0x48>)
     886:	4c10      	ldr	r4, [pc, #64]	; (8c8 <SysTick_Handler+0x4c>)
     888:	6a1d      	ldr	r5, [r3, #32]
     88a:	4b10      	ldr	r3, [pc, #64]	; (8cc <SysTick_Handler+0x50>)
     88c:	681a      	ldr	r2, [r3, #0]
     88e:	6819      	ldr	r1, [r3, #0]
     890:	6823      	ldr	r3, [r4, #0]
     892:	402a      	ands	r2, r5
     894:	400b      	ands	r3, r1
     896:	429a      	cmp	r2, r3
     898:	d007      	beq.n	8aa <SysTick_Handler+0x2e>
     89a:	4a0d      	ldr	r2, [pc, #52]	; (8d0 <SysTick_Handler+0x54>)
     89c:	6823      	ldr	r3, [r4, #0]
     89e:	6811      	ldr	r1, [r2, #0]
     8a0:	406b      	eors	r3, r5
     8a2:	430b      	orrs	r3, r1
     8a4:	6013      	str	r3, [r2, #0]
     8a6:	f001 fb19 	bl	1edc <_ZN8Delegate11intCallbackEv>
     8aa:	6025      	str	r5, [r4, #0]
     8ac:	b672      	cpsid	i
     8ae:	f000 fe75 	bl	159c <QXK_sched_>
     8b2:	2800      	cmp	r0, #0
     8b4:	d003      	beq.n	8be <SysTick_Handler+0x42>
     8b6:	2280      	movs	r2, #128	; 0x80
     8b8:	4b06      	ldr	r3, [pc, #24]	; (8d4 <SysTick_Handler+0x58>)
     8ba:	0552      	lsls	r2, r2, #21
     8bc:	601a      	str	r2, [r3, #0]
     8be:	b662      	cpsie	i
     8c0:	bd70      	pop	{r4, r5, r6, pc}
     8c2:	46c0      	nop			; (mov r8, r8)
     8c4:	41004400 	.word	0x41004400
     8c8:	200006ac 	.word	0x200006ac
     8cc:	200007f8 	.word	0x200007f8
     8d0:	200007fc 	.word	0x200007fc
     8d4:	e000ed04 	.word	0xe000ed04

000008d8 <_ZN2QP2QF9onStartupEv>:
     8d8:	23c0      	movs	r3, #192	; 0xc0
     8da:	21fa      	movs	r1, #250	; 0xfa
     8dc:	b570      	push	{r4, r5, r6, lr}
     8de:	4d1e      	ldr	r5, [pc, #120]	; (958 <_ZN2QP2QF9onStartupEv+0x80>)
     8e0:	4c1e      	ldr	r4, [pc, #120]	; (95c <_ZN2QP2QF9onStartupEv+0x84>)
     8e2:	6a2a      	ldr	r2, [r5, #32]
     8e4:	041b      	lsls	r3, r3, #16
     8e6:	4022      	ands	r2, r4
     8e8:	4313      	orrs	r3, r2
     8ea:	622b      	str	r3, [r5, #32]
     8ec:	4b1c      	ldr	r3, [pc, #112]	; (960 <_ZN2QP2QF9onStartupEv+0x88>)
     8ee:	0089      	lsls	r1, r1, #2
     8f0:	6818      	ldr	r0, [r3, #0]
     8f2:	f002 fa85 	bl	2e00 <__udivsi3>
     8f6:	4a1b      	ldr	r2, [pc, #108]	; (964 <_ZN2QP2QF9onStartupEv+0x8c>)
     8f8:	3801      	subs	r0, #1
     8fa:	0021      	movs	r1, r4
     8fc:	4290      	cmp	r0, r2
     8fe:	d80c      	bhi.n	91a <_ZN2QP2QF9onStartupEv+0x42>
     900:	4c19      	ldr	r4, [pc, #100]	; (968 <_ZN2QP2QF9onStartupEv+0x90>)
     902:	6060      	str	r0, [r4, #4]
     904:	20c0      	movs	r0, #192	; 0xc0
     906:	6a2a      	ldr	r2, [r5, #32]
     908:	0600      	lsls	r0, r0, #24
     90a:	0212      	lsls	r2, r2, #8
     90c:	0a12      	lsrs	r2, r2, #8
     90e:	4302      	orrs	r2, r0
     910:	622a      	str	r2, [r5, #32]
     912:	2200      	movs	r2, #0
     914:	60a2      	str	r2, [r4, #8]
     916:	3207      	adds	r2, #7
     918:	6022      	str	r2, [r4, #0]
     91a:	6a2a      	ldr	r2, [r5, #32]
     91c:	2480      	movs	r4, #128	; 0x80
     91e:	0212      	lsls	r2, r2, #8
     920:	0a12      	lsrs	r2, r2, #8
     922:	622a      	str	r2, [r5, #32]
     924:	22c2      	movs	r2, #194	; 0xc2
     926:	4b11      	ldr	r3, [pc, #68]	; (96c <_ZN2QP2QF9onStartupEv+0x94>)
     928:	0092      	lsls	r2, r2, #2
     92a:	5898      	ldr	r0, [r3, r2]
     92c:	03e4      	lsls	r4, r4, #15
     92e:	4008      	ands	r0, r1
     930:	4320      	orrs	r0, r4
     932:	5098      	str	r0, [r3, r2]
     934:	5898      	ldr	r0, [r3, r2]
     936:	4d0e      	ldr	r5, [pc, #56]	; (970 <_ZN2QP2QF9onStartupEv+0x98>)
     938:	4005      	ands	r5, r0
     93a:	2080      	movs	r0, #128	; 0x80
     93c:	01c0      	lsls	r0, r0, #7
     93e:	4328      	orrs	r0, r5
     940:	5098      	str	r0, [r3, r2]
     942:	5898      	ldr	r0, [r3, r2]
     944:	4001      	ands	r1, r0
     946:	430c      	orrs	r4, r1
     948:	509c      	str	r4, [r3, r2]
     94a:	2280      	movs	r2, #128	; 0x80
     94c:	0612      	lsls	r2, r2, #24
     94e:	601a      	str	r2, [r3, #0]
     950:	2280      	movs	r2, #128	; 0x80
     952:	00d2      	lsls	r2, r2, #3
     954:	601a      	str	r2, [r3, #0]
     956:	bd70      	pop	{r4, r5, r6, pc}
     958:	e000ed00 	.word	0xe000ed00
     95c:	ff00ffff 	.word	0xff00ffff
     960:	20000004 	.word	0x20000004
     964:	00ffffff 	.word	0x00ffffff
     968:	e000e010 	.word	0xe000e010
     96c:	e000e100 	.word	0xe000e100
     970:	ffff00ff 	.word	0xffff00ff

00000974 <_ZN2QP3QXK6onIdleEv>:
     974:	4770      	bx	lr

00000976 <Q_onAssert>:
     976:	b672      	cpsid	i
     978:	be00      	bkpt	0x0000
     97a:	e7fe      	b.n	97a <Q_onAssert+0x4>

0000097c <assert_failed>:
     97c:	be00      	bkpt	0x0000
     97e:	e7fe      	b.n	97e <assert_failed+0x2>

00000980 <_ZN2FW3EvtnwEj>:
     980:	2200      	movs	r2, #0
     982:	b510      	push	{r4, lr}
     984:	0011      	movs	r1, r2
     986:	f000 fb05 	bl	f94 <_ZN2QP2QF5newX_Ejji>
     98a:	bd10      	pop	{r4, pc}

0000098c <QXK_init>:
     98c:	f3ef 8010 	mrs	r0, PRIMASK
     990:	4684      	mov	ip, r0
     992:	b672      	cpsid	i
     994:	4b04      	ldr	r3, [pc, #16]	; (9a8 <QXK_init+0x1c>)
     996:	689a      	ldr	r2, [r3, #8]
     998:	21ff      	movs	r1, #255	; 0xff
     99a:	0409      	lsls	r1, r1, #16
     99c:	430a      	orrs	r2, r1
     99e:	609a      	str	r2, [r3, #8]
     9a0:	4660      	mov	r0, ip
     9a2:	f380 8810 	msr	PRIMASK, r0
     9a6:	4770      	bx	lr
     9a8:	e000ed18 	.word	0xe000ed18

000009ac <PendSV_Handler>:
     9ac:	4b2d      	ldr	r3, [pc, #180]	; (a64 <PendSV_restore_ex+0x24>)
     9ae:	4a2e      	ldr	r2, [pc, #184]	; (a68 <PendSV_restore_ex+0x28>)
     9b0:	2101      	movs	r1, #1
     9b2:	06c9      	lsls	r1, r1, #27
     9b4:	b672      	cpsid	i
     9b6:	6011      	str	r1, [r2, #0]
     9b8:	6858      	ldr	r0, [r3, #4]
     9ba:	2800      	cmp	r0, #0
     9bc:	d011      	beq.n	9e2 <PendSV_error>
     9be:	4684      	mov	ip, r0
     9c0:	6a82      	ldr	r2, [r0, #40]	; 0x28
     9c2:	6819      	ldr	r1, [r3, #0]
     9c4:	2900      	cmp	r1, #0
     9c6:	d12c      	bne.n	a22 <PendSV_save_ex>
     9c8:	2a00      	cmp	r2, #0
     9ca:	d10c      	bne.n	9e6 <PendSV_save_ao>

000009cc <PendSV_activate>:
     9cc:	2301      	movs	r3, #1
     9ce:	061b      	lsls	r3, r3, #24
     9d0:	4a26      	ldr	r2, [pc, #152]	; (a6c <PendSV_restore_ex+0x2c>)
     9d2:	3a01      	subs	r2, #1
     9d4:	4926      	ldr	r1, [pc, #152]	; (a70 <PendSV_restore_ex+0x30>)
     9d6:	b088      	sub	sp, #32
     9d8:	a805      	add	r0, sp, #20
     9da:	c00e      	stmia	r0!, {r1, r2, r3}
     9dc:	2006      	movs	r0, #6
     9de:	43c0      	mvns	r0, r0
     9e0:	4700      	bx	r0

000009e2 <PendSV_error>:
     9e2:	4b24      	ldr	r3, [pc, #144]	; (a74 <PendSV_restore_ex+0x34>)
     9e4:	4718      	bx	r3

000009e6 <PendSV_save_ao>:
     9e6:	b4f0      	push	{r4, r5, r6, r7}
     9e8:	4644      	mov	r4, r8
     9ea:	464d      	mov	r5, r9
     9ec:	4656      	mov	r6, sl
     9ee:	465f      	mov	r7, fp
     9f0:	b4f0      	push	{r4, r5, r6, r7}
     9f2:	2a00      	cmp	r2, #0
     9f4:	d124      	bne.n	a40 <PendSV_restore_ex>

000009f6 <PendSV_restore_ao>:
     9f6:	2000      	movs	r0, #0
     9f8:	6018      	str	r0, [r3, #0]
     9fa:	4668      	mov	r0, sp
     9fc:	4601      	mov	r1, r0
     9fe:	3110      	adds	r1, #16
     a00:	c9f0      	ldmia	r1!, {r4, r5, r6, r7}
     a02:	46a0      	mov	r8, r4
     a04:	46a9      	mov	r9, r5
     a06:	46b2      	mov	sl, r6
     a08:	46bb      	mov	fp, r7
     a0a:	c8f0      	ldmia	r0!, {r4, r5, r6, r7}
     a0c:	b008      	add	sp, #32
     a0e:	2106      	movs	r1, #6
     a10:	43c9      	mvns	r1, r1
     a12:	468e      	mov	lr, r1
     a14:	4660      	mov	r0, ip
     a16:	6b00      	ldr	r0, [r0, #48]	; 0x30
     a18:	6899      	ldr	r1, [r3, #8]
     a1a:	4281      	cmp	r1, r0
     a1c:	d3d6      	bcc.n	9cc <PendSV_activate>
     a1e:	b662      	cpsie	i
     a20:	4770      	bx	lr

00000a22 <PendSV_save_ex>:
     a22:	f3ef 8009 	mrs	r0, PSP
     a26:	3820      	subs	r0, #32
     a28:	0001      	movs	r1, r0
     a2a:	c1f0      	stmia	r1!, {r4, r5, r6, r7}
     a2c:	4644      	mov	r4, r8
     a2e:	464d      	mov	r5, r9
     a30:	4656      	mov	r6, sl
     a32:	465f      	mov	r7, fp
     a34:	c1f0      	stmia	r1!, {r4, r5, r6, r7}
     a36:	6819      	ldr	r1, [r3, #0]
     a38:	6288      	str	r0, [r1, #40]	; 0x28
     a3a:	4660      	mov	r0, ip
     a3c:	2a00      	cmp	r2, #0
     a3e:	d0da      	beq.n	9f6 <PendSV_restore_ao>

00000a40 <PendSV_restore_ex>:
     a40:	6018      	str	r0, [r3, #0]
     a42:	b662      	cpsie	i
     a44:	0010      	movs	r0, r2
     a46:	3010      	adds	r0, #16
     a48:	c8f0      	ldmia	r0!, {r4, r5, r6, r7}
     a4a:	46a0      	mov	r8, r4
     a4c:	46a9      	mov	r9, r5
     a4e:	46b2      	mov	sl, r6
     a50:	46bb      	mov	fp, r7
     a52:	caf0      	ldmia	r2!, {r4, r5, r6, r7}
     a54:	0002      	movs	r2, r0
     a56:	2102      	movs	r1, #2
     a58:	43c9      	mvns	r1, r1
     a5a:	468e      	mov	lr, r1
     a5c:	f382 8809 	msr	PSP, r2
     a60:	4770      	bx	lr
     a62:	0000      	.short	0x0000
     a64:	200007ac 	.word	0x200007ac
     a68:	e000ed04 	.word	0xe000ed04
     a6c:	000015fd 	.word	0x000015fd
     a70:	00000a79 	.word	0x00000a79
     a74:	0000097d 	.word	0x0000097d

00000a78 <Thread_ret>:
     a78:	4802      	ldr	r0, [pc, #8]	; (a84 <Thread_ret+0xc>)
     a7a:	2101      	movs	r1, #1
     a7c:	07c9      	lsls	r1, r1, #31
     a7e:	6001      	str	r1, [r0, #0]
     a80:	e7fe      	b.n	a80 <Thread_ret+0x8>
     a82:	0000      	.short	0x0000
     a84:	e000ed04 	.word	0xe000ed04

00000a88 <NMI_Handler>:
     a88:	b008      	add	sp, #32
     a8a:	b662      	cpsie	i
     a8c:	4770      	bx	lr

00000a8e <_ZN2QP4QHsmD1Ev>:
     a8e:	4770      	bx	lr

00000a90 <_ZN2QP4QHsm3topEPvPKNS_4QEvtE>:
     a90:	2004      	movs	r0, #4
     a92:	4770      	bx	lr

00000a94 <_ZN2QP4QHsmD0Ev>:
     a94:	b510      	push	{r4, lr}
     a96:	0004      	movs	r4, r0
     a98:	210c      	movs	r1, #12
     a9a:	f002 f99e 	bl	2dda <_ZdlPvj>
     a9e:	0020      	movs	r0, r4
     aa0:	bd10      	pop	{r4, pc}
	...

00000aa4 <_ZN2QP4QHsm4initEPKNS_4QEvtE>:
     aa4:	b5f0      	push	{r4, r5, r6, r7, lr}
     aa6:	6883      	ldr	r3, [r0, #8]
     aa8:	b087      	sub	sp, #28
     aaa:	0004      	movs	r4, r0
     aac:	000d      	movs	r5, r1
     aae:	6846      	ldr	r6, [r0, #4]
     ab0:	2b00      	cmp	r3, #0
     ab2:	d002      	beq.n	aba <_ZN2QP4QHsm4initEPKNS_4QEvtE+0x16>
     ab4:	4b1e      	ldr	r3, [pc, #120]	; (b30 <_ZN2QP4QHsm4initEPKNS_4QEvtE+0x8c>)
     ab6:	429e      	cmp	r6, r3
     ab8:	d003      	beq.n	ac2 <_ZN2QP4QHsm4initEPKNS_4QEvtE+0x1e>
     aba:	21c8      	movs	r1, #200	; 0xc8
     abc:	481d      	ldr	r0, [pc, #116]	; (b34 <_ZN2QP4QHsm4initEPKNS_4QEvtE+0x90>)
     abe:	f7ff ff5a 	bl	976 <Q_onAssert>
     ac2:	0029      	movs	r1, r5
     ac4:	0020      	movs	r0, r4
     ac6:	68a3      	ldr	r3, [r4, #8]
     ac8:	4798      	blx	r3
     aca:	2808      	cmp	r0, #8
     acc:	d003      	beq.n	ad6 <_ZN2QP4QHsm4initEPKNS_4QEvtE+0x32>
     ace:	21d2      	movs	r1, #210	; 0xd2
     ad0:	4818      	ldr	r0, [pc, #96]	; (b34 <_ZN2QP4QHsm4initEPKNS_4QEvtE+0x90>)
     ad2:	f7ff ff50 	bl	976 <Q_onAssert>
     ad6:	4f18      	ldr	r7, [pc, #96]	; (b38 <_ZN2QP4QHsm4initEPKNS_4QEvtE+0x94>)
     ad8:	68a3      	ldr	r3, [r4, #8]
     ada:	0039      	movs	r1, r7
     adc:	0020      	movs	r0, r4
     ade:	9300      	str	r3, [sp, #0]
     ae0:	2500      	movs	r5, #0
     ae2:	4798      	blx	r3
     ae4:	68a3      	ldr	r3, [r4, #8]
     ae6:	42b3      	cmp	r3, r6
     ae8:	d00e      	beq.n	b08 <_ZN2QP4QHsm4initEPKNS_4QEvtE+0x64>
     aea:	3501      	adds	r5, #1
     aec:	2d06      	cmp	r5, #6
     aee:	d103      	bne.n	af8 <_ZN2QP4QHsm4initEPKNS_4QEvtE+0x54>
     af0:	21dc      	movs	r1, #220	; 0xdc
     af2:	4810      	ldr	r0, [pc, #64]	; (b34 <_ZN2QP4QHsm4initEPKNS_4QEvtE+0x90>)
     af4:	f7ff ff3f 	bl	976 <Q_onAssert>
     af8:	4669      	mov	r1, sp
     afa:	68a3      	ldr	r3, [r4, #8]
     afc:	00aa      	lsls	r2, r5, #2
     afe:	508b      	str	r3, [r1, r2]
     b00:	0020      	movs	r0, r4
     b02:	0039      	movs	r1, r7
     b04:	4798      	blx	r3
     b06:	e7ed      	b.n	ae4 <_ZN2QP4QHsm4initEPKNS_4QEvtE+0x40>
     b08:	9e00      	ldr	r6, [sp, #0]
     b0a:	60a6      	str	r6, [r4, #8]
     b0c:	466a      	mov	r2, sp
     b0e:	00ab      	lsls	r3, r5, #2
     b10:	1d39      	adds	r1, r7, #4
     b12:	58d3      	ldr	r3, [r2, r3]
     b14:	0020      	movs	r0, r4
     b16:	4798      	blx	r3
     b18:	3d01      	subs	r5, #1
     b1a:	d2f7      	bcs.n	b0c <_ZN2QP4QHsm4initEPKNS_4QEvtE+0x68>
     b1c:	0039      	movs	r1, r7
     b1e:	0020      	movs	r0, r4
     b20:	310c      	adds	r1, #12
     b22:	47b0      	blx	r6
     b24:	2808      	cmp	r0, #8
     b26:	d0d6      	beq.n	ad6 <_ZN2QP4QHsm4initEPKNS_4QEvtE+0x32>
     b28:	6066      	str	r6, [r4, #4]
     b2a:	60a6      	str	r6, [r4, #8]
     b2c:	b007      	add	sp, #28
     b2e:	bdf0      	pop	{r4, r5, r6, r7, pc}
     b30:	00000a91 	.word	0x00000a91
     b34:	00003118 	.word	0x00003118
     b38:	200006b0 	.word	0x200006b0

00000b3c <_ZN2QP4QHsmC1EPFjPvPKNS_4QEvtEE>:
     b3c:	4b03      	ldr	r3, [pc, #12]	; (b4c <_ZN2QP4QHsmC1EPFjPvPKNS_4QEvtEE+0x10>)
     b3e:	6081      	str	r1, [r0, #8]
     b40:	3308      	adds	r3, #8
     b42:	6003      	str	r3, [r0, #0]
     b44:	4b02      	ldr	r3, [pc, #8]	; (b50 <_ZN2QP4QHsmC1EPFjPvPKNS_4QEvtEE+0x14>)
     b46:	6043      	str	r3, [r0, #4]
     b48:	4770      	bx	lr
     b4a:	46c0      	nop			; (mov r8, r8)
     b4c:	00003120 	.word	0x00003120
     b50:	00000a91 	.word	0x00000a91

00000b54 <_ZN2QP4QHsm8hsm_tranERA6_PFjPvPKNS_4QEvtEE>:
     b54:	b5f0      	push	{r4, r5, r6, r7, lr}
     b56:	688a      	ldr	r2, [r1, #8]
     b58:	680b      	ldr	r3, [r1, #0]
     b5a:	4f40      	ldr	r7, [pc, #256]	; (c5c <_ZN2QP4QHsm8hsm_tranERA6_PFjPvPKNS_4QEvtEE+0x108>)
     b5c:	b085      	sub	sp, #20
     b5e:	000e      	movs	r6, r1
     b60:	0004      	movs	r4, r0
     b62:	9201      	str	r2, [sp, #4]
     b64:	0039      	movs	r1, r7
     b66:	4293      	cmp	r3, r2
     b68:	d105      	bne.n	b76 <_ZN2QP4QHsm8hsm_tranERA6_PFjPvPKNS_4QEvtEE+0x22>
     b6a:	3108      	adds	r1, #8
     b6c:	4798      	blx	r3
     b6e:	2500      	movs	r5, #0
     b70:	0028      	movs	r0, r5
     b72:	b005      	add	sp, #20
     b74:	bdf0      	pop	{r4, r5, r6, r7, pc}
     b76:	4798      	blx	r3
     b78:	68a3      	ldr	r3, [r4, #8]
     b7a:	2500      	movs	r5, #0
     b7c:	9303      	str	r3, [sp, #12]
     b7e:	9a03      	ldr	r2, [sp, #12]
     b80:	9b01      	ldr	r3, [sp, #4]
     b82:	4293      	cmp	r3, r2
     b84:	d0f4      	beq.n	b70 <_ZN2QP4QHsm8hsm_tranERA6_PFjPvPKNS_4QEvtEE+0x1c>
     b86:	0039      	movs	r1, r7
     b88:	0020      	movs	r0, r4
     b8a:	4798      	blx	r3
     b8c:	68a3      	ldr	r3, [r4, #8]
     b8e:	9a03      	ldr	r2, [sp, #12]
     b90:	429a      	cmp	r2, r3
     b92:	d105      	bne.n	ba0 <_ZN2QP4QHsm8hsm_tranERA6_PFjPvPKNS_4QEvtEE+0x4c>
     b94:	0039      	movs	r1, r7
     b96:	0020      	movs	r0, r4
     b98:	3108      	adds	r1, #8
     b9a:	9b01      	ldr	r3, [sp, #4]
     b9c:	4798      	blx	r3
     b9e:	e7e7      	b.n	b70 <_ZN2QP4QHsm8hsm_tranERA6_PFjPvPKNS_4QEvtEE+0x1c>
     ba0:	6832      	ldr	r2, [r6, #0]
     ba2:	4293      	cmp	r3, r2
     ba4:	d107      	bne.n	bb6 <_ZN2QP4QHsm8hsm_tranERA6_PFjPvPKNS_4QEvtEE+0x62>
     ba6:	0039      	movs	r1, r7
     ba8:	2501      	movs	r5, #1
     baa:	3108      	adds	r1, #8
     bac:	0020      	movs	r0, r4
     bae:	9b01      	ldr	r3, [sp, #4]
     bb0:	4798      	blx	r3
     bb2:	426d      	negs	r5, r5
     bb4:	e7dc      	b.n	b70 <_ZN2QP4QHsm8hsm_tranERA6_PFjPvPKNS_4QEvtEE+0x1c>
     bb6:	9b03      	ldr	r3, [sp, #12]
     bb8:	0039      	movs	r1, r7
     bba:	6073      	str	r3, [r6, #4]
     bbc:	68a3      	ldr	r3, [r4, #8]
     bbe:	0020      	movs	r0, r4
     bc0:	9302      	str	r3, [sp, #8]
     bc2:	9b03      	ldr	r3, [sp, #12]
     bc4:	4798      	blx	r3
     bc6:	2501      	movs	r5, #1
     bc8:	2800      	cmp	r0, #0
     bca:	d116      	bne.n	bfa <_ZN2QP4QHsm8hsm_tranERA6_PFjPvPKNS_4QEvtEE+0xa6>
     bcc:	1c6b      	adds	r3, r5, #1
     bce:	68a2      	ldr	r2, [r4, #8]
     bd0:	9303      	str	r3, [sp, #12]
     bd2:	009b      	lsls	r3, r3, #2
     bd4:	519a      	str	r2, [r3, r6]
     bd6:	68a3      	ldr	r3, [r4, #8]
     bd8:	9a01      	ldr	r2, [sp, #4]
     bda:	429a      	cmp	r2, r3
     bdc:	d108      	bne.n	bf0 <_ZN2QP4QHsm8hsm_tranERA6_PFjPvPKNS_4QEvtEE+0x9c>
     bde:	1c6b      	adds	r3, r5, #1
     be0:	2b05      	cmp	r3, #5
     be2:	ddc5      	ble.n	b70 <_ZN2QP4QHsm8hsm_tranERA6_PFjPvPKNS_4QEvtEE+0x1c>
     be4:	21ff      	movs	r1, #255	; 0xff
     be6:	481e      	ldr	r0, [pc, #120]	; (c60 <_ZN2QP4QHsm8hsm_tranERA6_PFjPvPKNS_4QEvtEE+0x10c>)
     be8:	0049      	lsls	r1, r1, #1
     bea:	f7ff fec4 	bl	976 <Q_onAssert>
     bee:	e7bf      	b.n	b70 <_ZN2QP4QHsm8hsm_tranERA6_PFjPvPKNS_4QEvtEE+0x1c>
     bf0:	491a      	ldr	r1, [pc, #104]	; (c5c <_ZN2QP4QHsm8hsm_tranERA6_PFjPvPKNS_4QEvtEE+0x108>)
     bf2:	0020      	movs	r0, r4
     bf4:	4798      	blx	r3
     bf6:	9d03      	ldr	r5, [sp, #12]
     bf8:	e7e6      	b.n	bc8 <_ZN2QP4QHsm8hsm_tranERA6_PFjPvPKNS_4QEvtEE+0x74>
     bfa:	2300      	movs	r3, #0
     bfc:	429b      	cmp	r3, r3
     bfe:	d1b7      	bne.n	b70 <_ZN2QP4QHsm8hsm_tranERA6_PFjPvPKNS_4QEvtEE+0x1c>
     c00:	2d05      	cmp	r5, #5
     c02:	dd04      	ble.n	c0e <_ZN2QP4QHsm8hsm_tranERA6_PFjPvPKNS_4QEvtEE+0xba>
     c04:	2182      	movs	r1, #130	; 0x82
     c06:	4816      	ldr	r0, [pc, #88]	; (c60 <_ZN2QP4QHsm8hsm_tranERA6_PFjPvPKNS_4QEvtEE+0x10c>)
     c08:	0089      	lsls	r1, r1, #2
     c0a:	f7ff feb4 	bl	976 <Q_onAssert>
     c0e:	0039      	movs	r1, r7
     c10:	9b01      	ldr	r3, [sp, #4]
     c12:	3108      	adds	r1, #8
     c14:	0020      	movs	r0, r4
     c16:	4798      	blx	r3
     c18:	002b      	movs	r3, r5
     c1a:	009a      	lsls	r2, r3, #2
     c1c:	58b2      	ldr	r2, [r6, r2]
     c1e:	9902      	ldr	r1, [sp, #8]
     c20:	3b01      	subs	r3, #1
     c22:	4291      	cmp	r1, r2
     c24:	d101      	bne.n	c2a <_ZN2QP4QHsm8hsm_tranERA6_PFjPvPKNS_4QEvtEE+0xd6>
     c26:	001d      	movs	r5, r3
     c28:	e7a2      	b.n	b70 <_ZN2QP4QHsm8hsm_tranERA6_PFjPvPKNS_4QEvtEE+0x1c>
     c2a:	1c5a      	adds	r2, r3, #1
     c2c:	d1f5      	bne.n	c1a <_ZN2QP4QHsm8hsm_tranERA6_PFjPvPKNS_4QEvtEE+0xc6>
     c2e:	0039      	movs	r1, r7
     c30:	0020      	movs	r0, r4
     c32:	3108      	adds	r1, #8
     c34:	9b02      	ldr	r3, [sp, #8]
     c36:	4798      	blx	r3
     c38:	2803      	cmp	r0, #3
     c3a:	d103      	bne.n	c44 <_ZN2QP4QHsm8hsm_tranERA6_PFjPvPKNS_4QEvtEE+0xf0>
     c3c:	0039      	movs	r1, r7
     c3e:	0020      	movs	r0, r4
     c40:	9b02      	ldr	r3, [sp, #8]
     c42:	4798      	blx	r3
     c44:	68a3      	ldr	r3, [r4, #8]
     c46:	9302      	str	r3, [sp, #8]
     c48:	002b      	movs	r3, r5
     c4a:	009a      	lsls	r2, r3, #2
     c4c:	58b2      	ldr	r2, [r6, r2]
     c4e:	9902      	ldr	r1, [sp, #8]
     c50:	3b01      	subs	r3, #1
     c52:	4291      	cmp	r1, r2
     c54:	d0e7      	beq.n	c26 <_ZN2QP4QHsm8hsm_tranERA6_PFjPvPKNS_4QEvtEE+0xd2>
     c56:	1c5a      	adds	r2, r3, #1
     c58:	d1f7      	bne.n	c4a <_ZN2QP4QHsm8hsm_tranERA6_PFjPvPKNS_4QEvtEE+0xf6>
     c5a:	e7e8      	b.n	c2e <_ZN2QP4QHsm8hsm_tranERA6_PFjPvPKNS_4QEvtEE+0xda>
     c5c:	200006b0 	.word	0x200006b0
     c60:	00003118 	.word	0x00003118

00000c64 <_ZN2QP4QHsm8dispatchEPKNS_4QEvtE>:
     c64:	b5f0      	push	{r4, r5, r6, r7, lr}
     c66:	6845      	ldr	r5, [r0, #4]
     c68:	b089      	sub	sp, #36	; 0x24
     c6a:	0004      	movs	r4, r0
     c6c:	000e      	movs	r6, r1
     c6e:	2d00      	cmp	r5, #0
     c70:	d002      	beq.n	c78 <_ZN2QP4QHsm8dispatchEPKNS_4QEvtE+0x14>
     c72:	6883      	ldr	r3, [r0, #8]
     c74:	429d      	cmp	r5, r3
     c76:	d004      	beq.n	c82 <_ZN2QP4QHsm8dispatchEPKNS_4QEvtE+0x1e>
     c78:	21c8      	movs	r1, #200	; 0xc8
     c7a:	482e      	ldr	r0, [pc, #184]	; (d34 <_ZN2QP4QHsm8dispatchEPKNS_4QEvtE+0xd0>)
     c7c:	0049      	lsls	r1, r1, #1
     c7e:	f7ff fe7a 	bl	976 <Q_onAssert>
     c82:	68a7      	ldr	r7, [r4, #8]
     c84:	0031      	movs	r1, r6
     c86:	0020      	movs	r0, r4
     c88:	47b8      	blx	r7
     c8a:	2802      	cmp	r0, #2
     c8c:	d102      	bne.n	c94 <_ZN2QP4QHsm8dispatchEPKNS_4QEvtE+0x30>
     c8e:	492a      	ldr	r1, [pc, #168]	; (d38 <_ZN2QP4QHsm8dispatchEPKNS_4QEvtE+0xd4>)
     c90:	0020      	movs	r0, r4
     c92:	47b8      	blx	r7
     c94:	2800      	cmp	r0, #0
     c96:	d0f4      	beq.n	c82 <_ZN2QP4QHsm8dispatchEPKNS_4QEvtE+0x1e>
     c98:	2807      	cmp	r0, #7
     c9a:	d946      	bls.n	d2a <_ZN2QP4QHsm8dispatchEPKNS_4QEvtE+0xc6>
     c9c:	68a3      	ldr	r3, [r4, #8]
     c9e:	9503      	str	r5, [sp, #12]
     ca0:	9302      	str	r3, [sp, #8]
     ca2:	9704      	str	r7, [sp, #16]
     ca4:	4e24      	ldr	r6, [pc, #144]	; (d38 <_ZN2QP4QHsm8dispatchEPKNS_4QEvtE+0xd4>)
     ca6:	42af      	cmp	r7, r5
     ca8:	d00a      	beq.n	cc0 <_ZN2QP4QHsm8dispatchEPKNS_4QEvtE+0x5c>
     caa:	0031      	movs	r1, r6
     cac:	0020      	movs	r0, r4
     cae:	3108      	adds	r1, #8
     cb0:	47a8      	blx	r5
     cb2:	2803      	cmp	r0, #3
     cb4:	d102      	bne.n	cbc <_ZN2QP4QHsm8dispatchEPKNS_4QEvtE+0x58>
     cb6:	0031      	movs	r1, r6
     cb8:	0020      	movs	r0, r4
     cba:	47a8      	blx	r5
     cbc:	68a5      	ldr	r5, [r4, #8]
     cbe:	e7f1      	b.n	ca4 <_ZN2QP4QHsm8dispatchEPKNS_4QEvtE+0x40>
     cc0:	a902      	add	r1, sp, #8
     cc2:	0020      	movs	r0, r4
     cc4:	f7ff ff46 	bl	b54 <_ZN2QP4QHsm8hsm_tranERA6_PFjPvPKNS_4QEvtEE>
     cc8:	0005      	movs	r5, r0
     cca:	2d00      	cmp	r5, #0
     ccc:	db07      	blt.n	cde <_ZN2QP4QHsm8dispatchEPKNS_4QEvtE+0x7a>
     cce:	00ab      	lsls	r3, r5, #2
     cd0:	aa02      	add	r2, sp, #8
     cd2:	1d31      	adds	r1, r6, #4
     cd4:	58d3      	ldr	r3, [r2, r3]
     cd6:	0020      	movs	r0, r4
     cd8:	4798      	blx	r3
     cda:	3d01      	subs	r5, #1
     cdc:	e7f5      	b.n	cca <_ZN2QP4QHsm8dispatchEPKNS_4QEvtE+0x66>
     cde:	9d02      	ldr	r5, [sp, #8]
     ce0:	60a5      	str	r5, [r4, #8]
     ce2:	0031      	movs	r1, r6
     ce4:	0020      	movs	r0, r4
     ce6:	310c      	adds	r1, #12
     ce8:	47a8      	blx	r5
     cea:	2808      	cmp	r0, #8
     cec:	d11d      	bne.n	d2a <_ZN2QP4QHsm8dispatchEPKNS_4QEvtE+0xc6>
     cee:	68a3      	ldr	r3, [r4, #8]
     cf0:	0031      	movs	r1, r6
     cf2:	9302      	str	r3, [sp, #8]
     cf4:	0020      	movs	r0, r4
     cf6:	4798      	blx	r3
     cf8:	2700      	movs	r7, #0
     cfa:	68a3      	ldr	r3, [r4, #8]
     cfc:	42ab      	cmp	r3, r5
     cfe:	d007      	beq.n	d10 <_ZN2QP4QHsm8dispatchEPKNS_4QEvtE+0xac>
     d00:	3701      	adds	r7, #1
     d02:	a902      	add	r1, sp, #8
     d04:	00ba      	lsls	r2, r7, #2
     d06:	508b      	str	r3, [r1, r2]
     d08:	0020      	movs	r0, r4
     d0a:	0031      	movs	r1, r6
     d0c:	4798      	blx	r3
     d0e:	e7f4      	b.n	cfa <_ZN2QP4QHsm8dispatchEPKNS_4QEvtE+0x96>
     d10:	9b02      	ldr	r3, [sp, #8]
     d12:	9301      	str	r3, [sp, #4]
     d14:	60a3      	str	r3, [r4, #8]
     d16:	00bb      	lsls	r3, r7, #2
     d18:	aa02      	add	r2, sp, #8
     d1a:	1d31      	adds	r1, r6, #4
     d1c:	58d3      	ldr	r3, [r2, r3]
     d1e:	0020      	movs	r0, r4
     d20:	4798      	blx	r3
     d22:	3f01      	subs	r7, #1
     d24:	d2f7      	bcs.n	d16 <_ZN2QP4QHsm8dispatchEPKNS_4QEvtE+0xb2>
     d26:	9d02      	ldr	r5, [sp, #8]
     d28:	e7db      	b.n	ce2 <_ZN2QP4QHsm8dispatchEPKNS_4QEvtE+0x7e>
     d2a:	6065      	str	r5, [r4, #4]
     d2c:	60a5      	str	r5, [r4, #8]
     d2e:	b009      	add	sp, #36	; 0x24
     d30:	bdf0      	pop	{r4, r5, r6, r7, pc}
     d32:	46c0      	nop			; (mov r8, r8)
     d34:	00003118 	.word	0x00003118
     d38:	200006b0 	.word	0x200006b0

00000d3c <_GLOBAL__sub_I__ZN2QP4QHsmC2EPFjPvPKNS_4QEvtEE>:
     d3c:	2200      	movs	r2, #0
     d3e:	4b04      	ldr	r3, [pc, #16]	; (d50 <_GLOBAL__sub_I__ZN2QP4QHsmC2EPFjPvPKNS_4QEvtEE+0x14>)
     d40:	801a      	strh	r2, [r3, #0]
     d42:	3201      	adds	r2, #1
     d44:	809a      	strh	r2, [r3, #4]
     d46:	3201      	adds	r2, #1
     d48:	811a      	strh	r2, [r3, #8]
     d4a:	3201      	adds	r2, #1
     d4c:	819a      	strh	r2, [r3, #12]
     d4e:	4770      	bx	lr
     d50:	200006b0 	.word	0x200006b0

00000d54 <_ZN2QP2QF4add_EPNS_7QActiveE>:
     d54:	b570      	push	{r4, r5, r6, lr}
     d56:	6b04      	ldr	r4, [r0, #48]	; 0x30
     d58:	0006      	movs	r6, r0
     d5a:	1e63      	subs	r3, r4, #1
     d5c:	4d08      	ldr	r5, [pc, #32]	; (d80 <_ZN2QP2QF4add_EPNS_7QActiveE+0x2c>)
     d5e:	00a4      	lsls	r4, r4, #2
     d60:	2b1f      	cmp	r3, #31
     d62:	d802      	bhi.n	d6a <_ZN2QP2QF4add_EPNS_7QActiveE+0x16>
     d64:	592b      	ldr	r3, [r5, r4]
     d66:	2b00      	cmp	r3, #0
     d68:	d003      	beq.n	d72 <_ZN2QP2QF4add_EPNS_7QActiveE+0x1e>
     d6a:	2164      	movs	r1, #100	; 0x64
     d6c:	4805      	ldr	r0, [pc, #20]	; (d84 <_ZN2QP2QF4add_EPNS_7QActiveE+0x30>)
     d6e:	f7ff fe02 	bl	976 <Q_onAssert>
     d72:	f3ef 8310 	mrs	r3, PRIMASK
     d76:	b672      	cpsid	i
     d78:	512e      	str	r6, [r5, r4]
     d7a:	f383 8810 	msr	PRIMASK, r3
     d7e:	bd70      	pop	{r4, r5, r6, pc}
     d80:	200006c0 	.word	0x200006c0
     d84:	0000323c 	.word	0x0000323c

00000d88 <_ZN2QP2QF5bzeroEPvj>:
     d88:	2300      	movs	r3, #0
     d8a:	1841      	adds	r1, r0, r1
     d8c:	4288      	cmp	r0, r1
     d8e:	d002      	beq.n	d96 <_ZN2QP2QF5bzeroEPvj+0xe>
     d90:	7003      	strb	r3, [r0, #0]
     d92:	3001      	adds	r0, #1
     d94:	e7fa      	b.n	d8c <_ZN2QP2QF5bzeroEPvj+0x4>
     d96:	4770      	bx	lr

00000d98 <_ZN2QP7QActive5post_EPKNS_4QEvtEj>:
     d98:	b5f8      	push	{r3, r4, r5, r6, r7, lr}
     d9a:	0004      	movs	r4, r0
     d9c:	000d      	movs	r5, r1
     d9e:	0017      	movs	r7, r2
     da0:	2900      	cmp	r1, #0
     da2:	d103      	bne.n	dac <_ZN2QP7QActive5post_EPKNS_4QEvtEj+0x14>
     da4:	2164      	movs	r1, #100	; 0x64
     da6:	4826      	ldr	r0, [pc, #152]	; (e40 <_ZN2QP7QActive5post_EPKNS_4QEvtEj+0xa8>)
     da8:	f7ff fde5 	bl	976 <Q_onAssert>
     dac:	f3ef 8610 	mrs	r6, PRIMASK
     db0:	b672      	cpsid	i
     db2:	4a24      	ldr	r2, [pc, #144]	; (e44 <_ZN2QP7QActive5post_EPKNS_4QEvtEj+0xac>)
     db4:	6a23      	ldr	r3, [r4, #32]
     db6:	4297      	cmp	r7, r2
     db8:	d10c      	bne.n	dd4 <_ZN2QP7QActive5post_EPKNS_4QEvtEj+0x3c>
     dba:	2b00      	cmp	r3, #0
     dbc:	d10c      	bne.n	dd8 <_ZN2QP7QActive5post_EPKNS_4QEvtEj+0x40>
     dbe:	216e      	movs	r1, #110	; 0x6e
     dc0:	481f      	ldr	r0, [pc, #124]	; (e40 <_ZN2QP7QActive5post_EPKNS_4QEvtEj+0xa8>)
     dc2:	f7ff fdd8 	bl	976 <Q_onAssert>
     dc6:	f386 8810 	msr	PRIMASK, r6
     dca:	0028      	movs	r0, r5
     dcc:	f000 f91c 	bl	1008 <_ZN2QP2QF2gcEPKNS_4QEvtE>
     dd0:	2000      	movs	r0, #0
     dd2:	e027      	b.n	e24 <_ZN2QP7QActive5post_EPKNS_4QEvtEj+0x8c>
     dd4:	42bb      	cmp	r3, r7
     dd6:	d9f6      	bls.n	dc6 <_ZN2QP7QActive5post_EPKNS_4QEvtEj+0x2e>
     dd8:	78aa      	ldrb	r2, [r5, #2]
     dda:	2a00      	cmp	r2, #0
     ddc:	d003      	beq.n	de6 <_ZN2QP7QActive5post_EPKNS_4QEvtEj+0x4e>
     dde:	78ea      	ldrb	r2, [r5, #3]
     de0:	3201      	adds	r2, #1
     de2:	b2d2      	uxtb	r2, r2
     de4:	70ea      	strb	r2, [r5, #3]
     de6:	6a62      	ldr	r2, [r4, #36]	; 0x24
     de8:	3b01      	subs	r3, #1
     dea:	6223      	str	r3, [r4, #32]
     dec:	4293      	cmp	r3, r2
     dee:	d200      	bcs.n	df2 <_ZN2QP7QActive5post_EPKNS_4QEvtEj+0x5a>
     df0:	6263      	str	r3, [r4, #36]	; 0x24
     df2:	68e3      	ldr	r3, [r4, #12]
     df4:	2b00      	cmp	r3, #0
     df6:	d116      	bne.n	e26 <_ZN2QP7QActive5post_EPKNS_4QEvtEj+0x8e>
     df8:	6b22      	ldr	r2, [r4, #48]	; 0x30
     dfa:	3301      	adds	r3, #1
     dfc:	3a01      	subs	r2, #1
     dfe:	4093      	lsls	r3, r2
     e00:	4911      	ldr	r1, [pc, #68]	; (e48 <_ZN2QP7QActive5post_EPKNS_4QEvtEj+0xb0>)
     e02:	60e5      	str	r5, [r4, #12]
     e04:	6948      	ldr	r0, [r1, #20]
     e06:	4303      	orrs	r3, r0
     e08:	614b      	str	r3, [r1, #20]
     e0a:	f3ef 8305 	mrs	r3, IPSR
     e0e:	2b00      	cmp	r3, #0
     e10:	d105      	bne.n	e1e <_ZN2QP7QActive5post_EPKNS_4QEvtEj+0x86>
     e12:	f000 fbc3 	bl	159c <QXK_sched_>
     e16:	2800      	cmp	r0, #0
     e18:	d001      	beq.n	e1e <_ZN2QP7QActive5post_EPKNS_4QEvtEj+0x86>
     e1a:	f000 fbef 	bl	15fc <QXK_activate_>
     e1e:	f386 8810 	msr	PRIMASK, r6
     e22:	2001      	movs	r0, #1
     e24:	bdf8      	pop	{r3, r4, r5, r6, r7, pc}
     e26:	69a3      	ldr	r3, [r4, #24]
     e28:	6922      	ldr	r2, [r4, #16]
     e2a:	009b      	lsls	r3, r3, #2
     e2c:	509d      	str	r5, [r3, r2]
     e2e:	69a3      	ldr	r3, [r4, #24]
     e30:	2b00      	cmp	r3, #0
     e32:	d101      	bne.n	e38 <_ZN2QP7QActive5post_EPKNS_4QEvtEj+0xa0>
     e34:	6963      	ldr	r3, [r4, #20]
     e36:	61a3      	str	r3, [r4, #24]
     e38:	69a3      	ldr	r3, [r4, #24]
     e3a:	3b01      	subs	r3, #1
     e3c:	61a3      	str	r3, [r4, #24]
     e3e:	e7ee      	b.n	e1e <_ZN2QP7QActive5post_EPKNS_4QEvtEj+0x86>
     e40:	00003243 	.word	0x00003243
     e44:	0000ffff 	.word	0x0000ffff
     e48:	200007ac 	.word	0x200007ac

00000e4c <_ZN2QP7QActive8postLIFOEPKNS_4QEvtE>:
     e4c:	b5f8      	push	{r3, r4, r5, r6, r7, lr}
     e4e:	0004      	movs	r4, r0
     e50:	000d      	movs	r5, r1
     e52:	f3ef 8610 	mrs	r6, PRIMASK
     e56:	b672      	cpsid	i
     e58:	6a07      	ldr	r7, [r0, #32]
     e5a:	2f00      	cmp	r7, #0
     e5c:	d103      	bne.n	e66 <_ZN2QP7QActive8postLIFOEPKNS_4QEvtE+0x1a>
     e5e:	21d2      	movs	r1, #210	; 0xd2
     e60:	481b      	ldr	r0, [pc, #108]	; (ed0 <_ZN2QP7QActive8postLIFOEPKNS_4QEvtE+0x84>)
     e62:	f7ff fd88 	bl	976 <Q_onAssert>
     e66:	78ab      	ldrb	r3, [r5, #2]
     e68:	2b00      	cmp	r3, #0
     e6a:	d003      	beq.n	e74 <_ZN2QP7QActive8postLIFOEPKNS_4QEvtE+0x28>
     e6c:	78eb      	ldrb	r3, [r5, #3]
     e6e:	3301      	adds	r3, #1
     e70:	b2db      	uxtb	r3, r3
     e72:	70eb      	strb	r3, [r5, #3]
     e74:	6a63      	ldr	r3, [r4, #36]	; 0x24
     e76:	3f01      	subs	r7, #1
     e78:	6227      	str	r7, [r4, #32]
     e7a:	429f      	cmp	r7, r3
     e7c:	d200      	bcs.n	e80 <_ZN2QP7QActive8postLIFOEPKNS_4QEvtE+0x34>
     e7e:	6267      	str	r7, [r4, #36]	; 0x24
     e80:	68e2      	ldr	r2, [r4, #12]
     e82:	60e5      	str	r5, [r4, #12]
     e84:	2a00      	cmp	r2, #0
     e86:	d114      	bne.n	eb2 <_ZN2QP7QActive8postLIFOEPKNS_4QEvtE+0x66>
     e88:	2301      	movs	r3, #1
     e8a:	6b22      	ldr	r2, [r4, #48]	; 0x30
     e8c:	4911      	ldr	r1, [pc, #68]	; (ed4 <_ZN2QP7QActive8postLIFOEPKNS_4QEvtE+0x88>)
     e8e:	3a01      	subs	r2, #1
     e90:	4093      	lsls	r3, r2
     e92:	6948      	ldr	r0, [r1, #20]
     e94:	4303      	orrs	r3, r0
     e96:	614b      	str	r3, [r1, #20]
     e98:	f3ef 8305 	mrs	r3, IPSR
     e9c:	2b00      	cmp	r3, #0
     e9e:	d105      	bne.n	eac <_ZN2QP7QActive8postLIFOEPKNS_4QEvtE+0x60>
     ea0:	f000 fb7c 	bl	159c <QXK_sched_>
     ea4:	2800      	cmp	r0, #0
     ea6:	d001      	beq.n	eac <_ZN2QP7QActive8postLIFOEPKNS_4QEvtE+0x60>
     ea8:	f000 fba8 	bl	15fc <QXK_activate_>
     eac:	f386 8810 	msr	PRIMASK, r6
     eb0:	bdf8      	pop	{r3, r4, r5, r6, r7, pc}
     eb2:	69e3      	ldr	r3, [r4, #28]
     eb4:	6961      	ldr	r1, [r4, #20]
     eb6:	3301      	adds	r3, #1
     eb8:	61e3      	str	r3, [r4, #28]
     eba:	69e3      	ldr	r3, [r4, #28]
     ebc:	428b      	cmp	r3, r1
     ebe:	d101      	bne.n	ec4 <_ZN2QP7QActive8postLIFOEPKNS_4QEvtE+0x78>
     ec0:	2300      	movs	r3, #0
     ec2:	61e3      	str	r3, [r4, #28]
     ec4:	69e3      	ldr	r3, [r4, #28]
     ec6:	6921      	ldr	r1, [r4, #16]
     ec8:	009b      	lsls	r3, r3, #2
     eca:	505a      	str	r2, [r3, r1]
     ecc:	e7ee      	b.n	eac <_ZN2QP7QActive8postLIFOEPKNS_4QEvtE+0x60>
     ece:	46c0      	nop			; (mov r8, r8)
     ed0:	00003243 	.word	0x00003243
     ed4:	200007ac 	.word	0x200007ac

00000ed8 <_ZN2QP7QActive4get_Ev>:
     ed8:	b570      	push	{r4, r5, r6, lr}
     eda:	0004      	movs	r4, r0
     edc:	f3ef 8610 	mrs	r6, PRIMASK
     ee0:	b672      	cpsid	i
     ee2:	68c3      	ldr	r3, [r0, #12]
     ee4:	2b00      	cmp	r3, #0
     ee6:	d103      	bne.n	ef0 <_ZN2QP7QActive4get_Ev+0x18>
     ee8:	216e      	movs	r1, #110	; 0x6e
     eea:	4812      	ldr	r0, [pc, #72]	; (f34 <_ZN2QP7QActive4get_Ev+0x5c>)
     eec:	f7ff fd43 	bl	976 <Q_onAssert>
     ef0:	68e5      	ldr	r5, [r4, #12]
     ef2:	6a22      	ldr	r2, [r4, #32]
     ef4:	6963      	ldr	r3, [r4, #20]
     ef6:	3201      	adds	r2, #1
     ef8:	6222      	str	r2, [r4, #32]
     efa:	429a      	cmp	r2, r3
     efc:	d80f      	bhi.n	f1e <_ZN2QP7QActive4get_Ev+0x46>
     efe:	69e2      	ldr	r2, [r4, #28]
     f00:	6921      	ldr	r1, [r4, #16]
     f02:	0092      	lsls	r2, r2, #2
     f04:	5852      	ldr	r2, [r2, r1]
     f06:	60e2      	str	r2, [r4, #12]
     f08:	69e2      	ldr	r2, [r4, #28]
     f0a:	2a00      	cmp	r2, #0
     f0c:	d100      	bne.n	f10 <_ZN2QP7QActive4get_Ev+0x38>
     f0e:	61e3      	str	r3, [r4, #28]
     f10:	69e3      	ldr	r3, [r4, #28]
     f12:	3b01      	subs	r3, #1
     f14:	61e3      	str	r3, [r4, #28]
     f16:	f386 8810 	msr	PRIMASK, r6
     f1a:	0028      	movs	r0, r5
     f1c:	bd70      	pop	{r4, r5, r6, pc}
     f1e:	2100      	movs	r1, #0
     f20:	3301      	adds	r3, #1
     f22:	60e1      	str	r1, [r4, #12]
     f24:	429a      	cmp	r2, r3
     f26:	d0f6      	beq.n	f16 <_ZN2QP7QActive4get_Ev+0x3e>
     f28:	3137      	adds	r1, #55	; 0x37
     f2a:	31ff      	adds	r1, #255	; 0xff
     f2c:	4801      	ldr	r0, [pc, #4]	; (f34 <_ZN2QP7QActive4get_Ev+0x5c>)
     f2e:	f7ff fd22 	bl	976 <Q_onAssert>
     f32:	e7f0      	b.n	f16 <_ZN2QP7QActive4get_Ev+0x3e>
     f34:	00003243 	.word	0x00003243

00000f38 <_ZN2QP2QF8poolInitEPvjj>:
     f38:	b5f7      	push	{r0, r1, r2, r4, r5, r6, r7, lr}
     f3a:	4c13      	ldr	r4, [pc, #76]	; (f88 <_ZN2QP2QF8poolInitEPvjj+0x50>)
     f3c:	9001      	str	r0, [sp, #4]
     f3e:	6823      	ldr	r3, [r4, #0]
     f40:	000f      	movs	r7, r1
     f42:	0016      	movs	r6, r2
     f44:	2b02      	cmp	r3, #2
     f46:	d903      	bls.n	f50 <_ZN2QP2QF8poolInitEPvjj+0x18>
     f48:	21c8      	movs	r1, #200	; 0xc8
     f4a:	4810      	ldr	r0, [pc, #64]	; (f8c <_ZN2QP2QF8poolInitEPvjj+0x54>)
     f4c:	f7ff fd13 	bl	976 <Q_onAssert>
     f50:	6822      	ldr	r2, [r4, #0]
     f52:	4d0f      	ldr	r5, [pc, #60]	; (f90 <_ZN2QP2QF8poolInitEPvjj+0x58>)
     f54:	2a00      	cmp	r2, #0
     f56:	d00a      	beq.n	f6e <_ZN2QP2QF8poolInitEPvjj+0x36>
     f58:	2314      	movs	r3, #20
     f5a:	3a01      	subs	r2, #1
     f5c:	4353      	muls	r3, r2
     f5e:	18eb      	adds	r3, r5, r3
     f60:	899b      	ldrh	r3, [r3, #12]
     f62:	42b3      	cmp	r3, r6
     f64:	d303      	bcc.n	f6e <_ZN2QP2QF8poolInitEPvjj+0x36>
     f66:	21c9      	movs	r1, #201	; 0xc9
     f68:	4808      	ldr	r0, [pc, #32]	; (f8c <_ZN2QP2QF8poolInitEPvjj+0x54>)
     f6a:	f7ff fd04 	bl	976 <Q_onAssert>
     f6e:	2014      	movs	r0, #20
     f70:	6823      	ldr	r3, [r4, #0]
     f72:	003a      	movs	r2, r7
     f74:	4358      	muls	r0, r3
     f76:	9901      	ldr	r1, [sp, #4]
     f78:	0033      	movs	r3, r6
     f7a:	1828      	adds	r0, r5, r0
     f7c:	f000 f88a 	bl	1094 <_ZN2QP6QMPool4initEPvjj>
     f80:	6823      	ldr	r3, [r4, #0]
     f82:	3301      	adds	r3, #1
     f84:	6023      	str	r3, [r4, #0]
     f86:	bdf7      	pop	{r0, r1, r2, r4, r5, r6, r7, pc}
     f88:	20000744 	.word	0x20000744
     f8c:	0000324b 	.word	0x0000324b
     f90:	20000748 	.word	0x20000748

00000f94 <_ZN2QP2QF5newX_Ejji>:
     f94:	b5f8      	push	{r3, r4, r5, r6, r7, lr}
     f96:	000e      	movs	r6, r1
     f98:	2400      	movs	r4, #0
     f9a:	2114      	movs	r1, #20
     f9c:	4b16      	ldr	r3, [pc, #88]	; (ff8 <_ZN2QP2QF5newX_Ejji+0x64>)
     f9e:	0017      	movs	r7, r2
     fa0:	4d16      	ldr	r5, [pc, #88]	; (ffc <_ZN2QP2QF5newX_Ejji+0x68>)
     fa2:	681a      	ldr	r2, [r3, #0]
     fa4:	4294      	cmp	r4, r2
     fa6:	d007      	beq.n	fb8 <_ZN2QP2QF5newX_Ejji+0x24>
     fa8:	000b      	movs	r3, r1
     faa:	4363      	muls	r3, r4
     fac:	18eb      	adds	r3, r5, r3
     fae:	899b      	ldrh	r3, [r3, #12]
     fb0:	4283      	cmp	r3, r0
     fb2:	d206      	bcs.n	fc2 <_ZN2QP2QF5newX_Ejji+0x2e>
     fb4:	3401      	adds	r4, #1
     fb6:	e7f5      	b.n	fa4 <_ZN2QP2QF5newX_Ejji+0x10>
     fb8:	219b      	movs	r1, #155	; 0x9b
     fba:	4811      	ldr	r0, [pc, #68]	; (1000 <_ZN2QP2QF5newX_Ejji+0x6c>)
     fbc:	0049      	lsls	r1, r1, #1
     fbe:	f7ff fcda 	bl	976 <Q_onAssert>
     fc2:	2014      	movs	r0, #20
     fc4:	4360      	muls	r0, r4
     fc6:	4b0f      	ldr	r3, [pc, #60]	; (1004 <_ZN2QP2QF5newX_Ejji+0x70>)
     fc8:	1828      	adds	r0, r5, r0
     fca:	0031      	movs	r1, r6
     fcc:	429e      	cmp	r6, r3
     fce:	d100      	bne.n	fd2 <_ZN2QP2QF5newX_Ejji+0x3e>
     fd0:	2100      	movs	r1, #0
     fd2:	f000 f8bf 	bl	1154 <_ZN2QP6QMPool3getEj>
     fd6:	1e05      	subs	r5, r0, #0
     fd8:	d006      	beq.n	fe8 <_ZN2QP2QF5newX_Ejji+0x54>
     fda:	2300      	movs	r3, #0
     fdc:	3401      	adds	r4, #1
     fde:	8007      	strh	r7, [r0, #0]
     fe0:	7084      	strb	r4, [r0, #2]
     fe2:	70c3      	strb	r3, [r0, #3]
     fe4:	0028      	movs	r0, r5
     fe6:	bdf8      	pop	{r3, r4, r5, r6, r7, pc}
     fe8:	2e00      	cmp	r6, #0
     fea:	d1fb      	bne.n	fe4 <_ZN2QP2QF5newX_Ejji+0x50>
     fec:	21a0      	movs	r1, #160	; 0xa0
     fee:	4804      	ldr	r0, [pc, #16]	; (1000 <_ZN2QP2QF5newX_Ejji+0x6c>)
     ff0:	0049      	lsls	r1, r1, #1
     ff2:	f7ff fcc0 	bl	976 <Q_onAssert>
     ff6:	e7f5      	b.n	fe4 <_ZN2QP2QF5newX_Ejji+0x50>
     ff8:	20000744 	.word	0x20000744
     ffc:	20000748 	.word	0x20000748
    1000:	0000324b 	.word	0x0000324b
    1004:	0000ffff 	.word	0x0000ffff

00001008 <_ZN2QP2QF2gcEPKNS_4QEvtE>:
    1008:	b570      	push	{r4, r5, r6, lr}
    100a:	7885      	ldrb	r5, [r0, #2]
    100c:	0004      	movs	r4, r0
    100e:	2d00      	cmp	r5, #0
    1010:	d00b      	beq.n	102a <_ZN2QP2QF2gcEPKNS_4QEvtE+0x22>
    1012:	f3ef 8210 	mrs	r2, PRIMASK
    1016:	b672      	cpsid	i
    1018:	78c3      	ldrb	r3, [r0, #3]
    101a:	2b01      	cmp	r3, #1
    101c:	dd06      	ble.n	102c <_ZN2QP2QF2gcEPKNS_4QEvtE+0x24>
    101e:	78c3      	ldrb	r3, [r0, #3]
    1020:	3b01      	subs	r3, #1
    1022:	b2db      	uxtb	r3, r3
    1024:	70c3      	strb	r3, [r0, #3]
    1026:	f382 8810 	msr	PRIMASK, r2
    102a:	bd70      	pop	{r4, r5, r6, pc}
    102c:	3d01      	subs	r5, #1
    102e:	f382 8810 	msr	PRIMASK, r2
    1032:	4b08      	ldr	r3, [pc, #32]	; (1054 <_ZN2QP2QF2gcEPKNS_4QEvtE+0x4c>)
    1034:	681b      	ldr	r3, [r3, #0]
    1036:	429d      	cmp	r5, r3
    1038:	d304      	bcc.n	1044 <_ZN2QP2QF2gcEPKNS_4QEvtE+0x3c>
    103a:	21cd      	movs	r1, #205	; 0xcd
    103c:	4806      	ldr	r0, [pc, #24]	; (1058 <_ZN2QP2QF2gcEPKNS_4QEvtE+0x50>)
    103e:	0049      	lsls	r1, r1, #1
    1040:	f7ff fc99 	bl	976 <Q_onAssert>
    1044:	2014      	movs	r0, #20
    1046:	4345      	muls	r5, r0
    1048:	4804      	ldr	r0, [pc, #16]	; (105c <_ZN2QP2QF2gcEPKNS_4QEvtE+0x54>)
    104a:	0021      	movs	r1, r4
    104c:	1940      	adds	r0, r0, r5
    104e:	f000 f861 	bl	1114 <_ZN2QP6QMPool3putEPv>
    1052:	e7ea      	b.n	102a <_ZN2QP2QF2gcEPKNS_4QEvtE+0x22>
    1054:	20000744 	.word	0x20000744
    1058:	0000324b 	.word	0x0000324b
    105c:	20000748 	.word	0x20000748

00001060 <_GLOBAL__sub_I__ZN2QP8QF_pool_E>:
    1060:	b510      	push	{r4, lr}
    1062:	4c06      	ldr	r4, [pc, #24]	; (107c <_GLOBAL__sub_I__ZN2QP8QF_pool_E+0x1c>)
    1064:	0020      	movs	r0, r4
    1066:	f000 f80b 	bl	1080 <_ZN2QP6QMPoolC1Ev>
    106a:	0020      	movs	r0, r4
    106c:	3014      	adds	r0, #20
    106e:	f000 f807 	bl	1080 <_ZN2QP6QMPoolC1Ev>
    1072:	0020      	movs	r0, r4
    1074:	3028      	adds	r0, #40	; 0x28
    1076:	f000 f803 	bl	1080 <_ZN2QP6QMPoolC1Ev>
    107a:	bd10      	pop	{r4, pc}
    107c:	20000748 	.word	0x20000748

00001080 <_ZN2QP6QMPoolC1Ev>:
    1080:	2300      	movs	r3, #0
    1082:	6083      	str	r3, [r0, #8]
    1084:	6003      	str	r3, [r0, #0]
    1086:	6043      	str	r3, [r0, #4]
    1088:	8183      	strh	r3, [r0, #12]
    108a:	81c3      	strh	r3, [r0, #14]
    108c:	8203      	strh	r3, [r0, #16]
    108e:	8243      	strh	r3, [r0, #18]
    1090:	4770      	bx	lr
	...

00001094 <_ZN2QP6QMPool4initEPvjj>:
    1094:	b5f7      	push	{r0, r1, r2, r4, r5, r6, r7, lr}
    1096:	0004      	movs	r4, r0
    1098:	000f      	movs	r7, r1
    109a:	0016      	movs	r6, r2
    109c:	001d      	movs	r5, r3
    109e:	2900      	cmp	r1, #0
    10a0:	d004      	beq.n	10ac <_ZN2QP6QMPool4initEPvjj+0x18>
    10a2:	2a03      	cmp	r2, #3
    10a4:	d902      	bls.n	10ac <_ZN2QP6QMPool4initEPvjj+0x18>
    10a6:	3304      	adds	r3, #4
    10a8:	429d      	cmp	r5, r3
    10aa:	d303      	bcc.n	10b4 <_ZN2QP6QMPool4initEPvjj+0x20>
    10ac:	2164      	movs	r1, #100	; 0x64
    10ae:	4818      	ldr	r0, [pc, #96]	; (1110 <_ZN2QP6QMPool4initEPvjj+0x7c>)
    10b0:	f7ff fc61 	bl	976 <Q_onAssert>
    10b4:	2304      	movs	r3, #4
    10b6:	81a3      	strh	r3, [r4, #12]
    10b8:	3b03      	subs	r3, #3
    10ba:	9301      	str	r3, [sp, #4]
    10bc:	60a7      	str	r7, [r4, #8]
    10be:	b2ab      	uxth	r3, r5
    10c0:	89a5      	ldrh	r5, [r4, #12]
    10c2:	429d      	cmp	r5, r3
    10c4:	da05      	bge.n	10d2 <_ZN2QP6QMPool4initEPvjj+0x3e>
    10c6:	9a01      	ldr	r2, [sp, #4]
    10c8:	3504      	adds	r5, #4
    10ca:	3201      	adds	r2, #1
    10cc:	81a5      	strh	r5, [r4, #12]
    10ce:	9201      	str	r2, [sp, #4]
    10d0:	e7f6      	b.n	10c0 <_ZN2QP6QMPool4initEPvjj+0x2c>
    10d2:	42ae      	cmp	r6, r5
    10d4:	d203      	bcs.n	10de <_ZN2QP6QMPool4initEPvjj+0x4a>
    10d6:	216e      	movs	r1, #110	; 0x6e
    10d8:	480d      	ldr	r0, [pc, #52]	; (1110 <_ZN2QP6QMPool4initEPvjj+0x7c>)
    10da:	f7ff fc4c 	bl	976 <Q_onAssert>
    10de:	2301      	movs	r3, #1
    10e0:	9a01      	ldr	r2, [sp, #4]
    10e2:	81e3      	strh	r3, [r4, #14]
    10e4:	68a3      	ldr	r3, [r4, #8]
    10e6:	1b76      	subs	r6, r6, r5
    10e8:	0092      	lsls	r2, r2, #2
    10ea:	42ae      	cmp	r6, r5
    10ec:	d307      	bcc.n	10fe <_ZN2QP6QMPool4initEPvjj+0x6a>
    10ee:	1899      	adds	r1, r3, r2
    10f0:	6019      	str	r1, [r3, #0]
    10f2:	89e1      	ldrh	r1, [r4, #14]
    10f4:	681b      	ldr	r3, [r3, #0]
    10f6:	3101      	adds	r1, #1
    10f8:	1b76      	subs	r6, r6, r5
    10fa:	81e1      	strh	r1, [r4, #14]
    10fc:	e7f5      	b.n	10ea <_ZN2QP6QMPool4initEPvjj+0x56>
    10fe:	2200      	movs	r2, #0
    1100:	601a      	str	r2, [r3, #0]
    1102:	89e2      	ldrh	r2, [r4, #14]
    1104:	6027      	str	r7, [r4, #0]
    1106:	8222      	strh	r2, [r4, #16]
    1108:	8262      	strh	r2, [r4, #18]
    110a:	6063      	str	r3, [r4, #4]
    110c:	bdf7      	pop	{r0, r1, r2, r4, r5, r6, r7, pc}
    110e:	46c0      	nop			; (mov r8, r8)
    1110:	00003252 	.word	0x00003252

00001114 <_ZN2QP6QMPool3putEPv>:
    1114:	b570      	push	{r4, r5, r6, lr}
    1116:	8a02      	ldrh	r2, [r0, #16]
    1118:	89c3      	ldrh	r3, [r0, #14]
    111a:	0004      	movs	r4, r0
    111c:	000d      	movs	r5, r1
    111e:	429a      	cmp	r2, r3
    1120:	da05      	bge.n	112e <_ZN2QP6QMPool3putEPv+0x1a>
    1122:	6803      	ldr	r3, [r0, #0]
    1124:	428b      	cmp	r3, r1
    1126:	d802      	bhi.n	112e <_ZN2QP6QMPool3putEPv+0x1a>
    1128:	6843      	ldr	r3, [r0, #4]
    112a:	428b      	cmp	r3, r1
    112c:	d203      	bcs.n	1136 <_ZN2QP6QMPool3putEPv+0x22>
    112e:	21c8      	movs	r1, #200	; 0xc8
    1130:	4807      	ldr	r0, [pc, #28]	; (1150 <_ZN2QP6QMPool3putEPv+0x3c>)
    1132:	f7ff fc20 	bl	976 <Q_onAssert>
    1136:	f3ef 8210 	mrs	r2, PRIMASK
    113a:	b672      	cpsid	i
    113c:	68a3      	ldr	r3, [r4, #8]
    113e:	602b      	str	r3, [r5, #0]
    1140:	60a5      	str	r5, [r4, #8]
    1142:	8a23      	ldrh	r3, [r4, #16]
    1144:	3301      	adds	r3, #1
    1146:	b29b      	uxth	r3, r3
    1148:	8223      	strh	r3, [r4, #16]
    114a:	f382 8810 	msr	PRIMASK, r2
    114e:	bd70      	pop	{r4, r5, r6, pc}
    1150:	00003252 	.word	0x00003252

00001154 <_ZN2QP6QMPool3getEj>:
    1154:	b5f8      	push	{r3, r4, r5, r6, r7, lr}
    1156:	0004      	movs	r4, r0
    1158:	f3ef 8710 	mrs	r7, PRIMASK
    115c:	b672      	cpsid	i
    115e:	8a03      	ldrh	r3, [r0, #16]
    1160:	b289      	uxth	r1, r1
    1162:	2500      	movs	r5, #0
    1164:	428b      	cmp	r3, r1
    1166:	dd19      	ble.n	119c <_ZN2QP6QMPool3getEj+0x48>
    1168:	6885      	ldr	r5, [r0, #8]
    116a:	2d00      	cmp	r5, #0
    116c:	d104      	bne.n	1178 <_ZN2QP6QMPool3getEj+0x24>
    116e:	219b      	movs	r1, #155	; 0x9b
    1170:	4815      	ldr	r0, [pc, #84]	; (11c8 <_ZN2QP6QMPool3getEj+0x74>)
    1172:	0049      	lsls	r1, r1, #1
    1174:	f7ff fbff 	bl	976 <Q_onAssert>
    1178:	682e      	ldr	r6, [r5, #0]
    117a:	8a23      	ldrh	r3, [r4, #16]
    117c:	3b01      	subs	r3, #1
    117e:	b29b      	uxth	r3, r3
    1180:	8223      	strh	r3, [r4, #16]
    1182:	8a23      	ldrh	r3, [r4, #16]
    1184:	2b00      	cmp	r3, #0
    1186:	d10d      	bne.n	11a4 <_ZN2QP6QMPool3getEj+0x50>
    1188:	2e00      	cmp	r6, #0
    118a:	d004      	beq.n	1196 <_ZN2QP6QMPool3getEj+0x42>
    118c:	21a0      	movs	r1, #160	; 0xa0
    118e:	480e      	ldr	r0, [pc, #56]	; (11c8 <_ZN2QP6QMPool3getEj+0x74>)
    1190:	0049      	lsls	r1, r1, #1
    1192:	f7ff fbf0 	bl	976 <Q_onAssert>
    1196:	2300      	movs	r3, #0
    1198:	8263      	strh	r3, [r4, #18]
    119a:	60a6      	str	r6, [r4, #8]
    119c:	f387 8810 	msr	PRIMASK, r7
    11a0:	0028      	movs	r0, r5
    11a2:	bdf8      	pop	{r3, r4, r5, r6, r7, pc}
    11a4:	6823      	ldr	r3, [r4, #0]
    11a6:	429e      	cmp	r6, r3
    11a8:	d302      	bcc.n	11b0 <_ZN2QP6QMPool3getEj+0x5c>
    11aa:	6863      	ldr	r3, [r4, #4]
    11ac:	429e      	cmp	r6, r3
    11ae:	d904      	bls.n	11ba <_ZN2QP6QMPool3getEj+0x66>
    11b0:	21a5      	movs	r1, #165	; 0xa5
    11b2:	4805      	ldr	r0, [pc, #20]	; (11c8 <_ZN2QP6QMPool3getEj+0x74>)
    11b4:	0049      	lsls	r1, r1, #1
    11b6:	f7ff fbde 	bl	976 <Q_onAssert>
    11ba:	8a23      	ldrh	r3, [r4, #16]
    11bc:	8a62      	ldrh	r2, [r4, #18]
    11be:	429a      	cmp	r2, r3
    11c0:	ddeb      	ble.n	119a <_ZN2QP6QMPool3getEj+0x46>
    11c2:	8a23      	ldrh	r3, [r4, #16]
    11c4:	e7e8      	b.n	1198 <_ZN2QP6QMPool3getEj+0x44>
    11c6:	46c0      	nop			; (mov r8, r8)
    11c8:	00003252 	.word	0x00003252

000011cc <_ZN2QP7QF_LOG2Em>:
    11cc:	0c03      	lsrs	r3, r0, #16
    11ce:	d007      	beq.n	11e0 <_ZN2QP7QF_LOG2Em+0x14>
    11d0:	0e00      	lsrs	r0, r0, #24
    11d2:	d10a      	bne.n	11ea <_ZN2QP7QF_LOG2Em+0x1e>
    11d4:	0018      	movs	r0, r3
    11d6:	2310      	movs	r3, #16
    11d8:	4a05      	ldr	r2, [pc, #20]	; (11f0 <_ZN2QP7QF_LOG2Em+0x24>)
    11da:	5c10      	ldrb	r0, [r2, r0]
    11dc:	18c0      	adds	r0, r0, r3
    11de:	4770      	bx	lr
    11e0:	0a03      	lsrs	r3, r0, #8
    11e2:	d0f9      	beq.n	11d8 <_ZN2QP7QF_LOG2Em+0xc>
    11e4:	0018      	movs	r0, r3
    11e6:	2308      	movs	r3, #8
    11e8:	e7f6      	b.n	11d8 <_ZN2QP7QF_LOG2Em+0xc>
    11ea:	2318      	movs	r3, #24
    11ec:	e7f4      	b.n	11d8 <_ZN2QP7QF_LOG2Em+0xc>
    11ee:	46c0      	nop			; (mov r8, r8)
    11f0:	0000313c 	.word	0x0000313c

000011f4 <_ZN2QP2QF6psInitEPNS_5QPSetEi>:
    11f4:	b510      	push	{r4, lr}
    11f6:	4b04      	ldr	r3, [pc, #16]	; (1208 <_ZN2QP2QF6psInitEPNS_5QPSetEi+0x14>)
    11f8:	6018      	str	r0, [r3, #0]
    11fa:	4b04      	ldr	r3, [pc, #16]	; (120c <_ZN2QP2QF6psInitEPNS_5QPSetEi+0x18>)
    11fc:	6019      	str	r1, [r3, #0]
    11fe:	0089      	lsls	r1, r1, #2
    1200:	f7ff fdc2 	bl	d88 <_ZN2QP2QF5bzeroEPvj>
    1204:	bd10      	pop	{r4, pc}
    1206:	46c0      	nop			; (mov r8, r8)
    1208:	20000784 	.word	0x20000784
    120c:	20000788 	.word	0x20000788

00001210 <_ZN2QP2QF8publish_EPKNS_4QEvtE>:
    1210:	b5f0      	push	{r4, r5, r6, r7, lr}
    1212:	4b2b      	ldr	r3, [pc, #172]	; (12c0 <_ZN2QP2QF8publish_EPKNS_4QEvtE+0xb0>)
    1214:	8802      	ldrh	r2, [r0, #0]
    1216:	681b      	ldr	r3, [r3, #0]
    1218:	b087      	sub	sp, #28
    121a:	0004      	movs	r4, r0
    121c:	429a      	cmp	r2, r3
    121e:	db03      	blt.n	1228 <_ZN2QP2QF8publish_EPKNS_4QEvtE+0x18>
    1220:	2164      	movs	r1, #100	; 0x64
    1222:	4828      	ldr	r0, [pc, #160]	; (12c4 <_ZN2QP2QF8publish_EPKNS_4QEvtE+0xb4>)
    1224:	f7ff fba7 	bl	976 <Q_onAssert>
    1228:	f3ef 8210 	mrs	r2, PRIMASK
    122c:	b672      	cpsid	i
    122e:	78a3      	ldrb	r3, [r4, #2]
    1230:	2b00      	cmp	r3, #0
    1232:	d003      	beq.n	123c <_ZN2QP2QF8publish_EPKNS_4QEvtE+0x2c>
    1234:	78e3      	ldrb	r3, [r4, #3]
    1236:	3301      	adds	r3, #1
    1238:	b2db      	uxtb	r3, r3
    123a:	70e3      	strb	r3, [r4, #3]
    123c:	4922      	ldr	r1, [pc, #136]	; (12c8 <_ZN2QP2QF8publish_EPKNS_4QEvtE+0xb8>)
    123e:	8823      	ldrh	r3, [r4, #0]
    1240:	6809      	ldr	r1, [r1, #0]
    1242:	009b      	lsls	r3, r3, #2
    1244:	585e      	ldr	r6, [r3, r1]
    1246:	f382 8810 	msr	PRIMASK, r2
    124a:	2e00      	cmp	r6, #0
    124c:	d02a      	beq.n	12a4 <_ZN2QP2QF8publish_EPKNS_4QEvtE+0x94>
    124e:	0030      	movs	r0, r6
    1250:	f7ff ffbc 	bl	11cc <_ZN2QP7QF_LOG2Em>
    1254:	0005      	movs	r5, r0
    1256:	f3ef 8305 	mrs	r3, IPSR
    125a:	2b00      	cmp	r3, #0
    125c:	d027      	beq.n	12ae <_ZN2QP2QF8publish_EPKNS_4QEvtE+0x9e>
    125e:	2300      	movs	r3, #0
    1260:	9303      	str	r3, [sp, #12]
    1262:	4f1a      	ldr	r7, [pc, #104]	; (12cc <_ZN2QP2QF8publish_EPKNS_4QEvtE+0xbc>)
    1264:	00ab      	lsls	r3, r5, #2
    1266:	59db      	ldr	r3, [r3, r7]
    1268:	9301      	str	r3, [sp, #4]
    126a:	2b00      	cmp	r3, #0
    126c:	d103      	bne.n	1276 <_ZN2QP2QF8publish_EPKNS_4QEvtE+0x66>
    126e:	21d2      	movs	r1, #210	; 0xd2
    1270:	4814      	ldr	r0, [pc, #80]	; (12c4 <_ZN2QP2QF8publish_EPKNS_4QEvtE+0xb4>)
    1272:	f7ff fb80 	bl	976 <Q_onAssert>
    1276:	00ab      	lsls	r3, r5, #2
    1278:	58f8      	ldr	r0, [r7, r3]
    127a:	4a15      	ldr	r2, [pc, #84]	; (12d0 <_ZN2QP2QF8publish_EPKNS_4QEvtE+0xc0>)
    127c:	6803      	ldr	r3, [r0, #0]
    127e:	0021      	movs	r1, r4
    1280:	69db      	ldr	r3, [r3, #28]
    1282:	4798      	blx	r3
    1284:	2301      	movs	r3, #1
    1286:	3d01      	subs	r5, #1
    1288:	40ab      	lsls	r3, r5
    128a:	439e      	bics	r6, r3
    128c:	d004      	beq.n	1298 <_ZN2QP2QF8publish_EPKNS_4QEvtE+0x88>
    128e:	0030      	movs	r0, r6
    1290:	f7ff ff9c 	bl	11cc <_ZN2QP7QF_LOG2Em>
    1294:	1e05      	subs	r5, r0, #0
    1296:	d1e4      	bne.n	1262 <_ZN2QP2QF8publish_EPKNS_4QEvtE+0x52>
    1298:	9b03      	ldr	r3, [sp, #12]
    129a:	2b00      	cmp	r3, #0
    129c:	d002      	beq.n	12a4 <_ZN2QP2QF8publish_EPKNS_4QEvtE+0x94>
    129e:	a803      	add	r0, sp, #12
    12a0:	f000 fa86 	bl	17b0 <_ZN2QP7QXMutex6unlockEv>
    12a4:	0020      	movs	r0, r4
    12a6:	f7ff feaf 	bl	1008 <_ZN2QP2QF2gcEPKNS_4QEvtE>
    12aa:	b007      	add	sp, #28
    12ac:	bdf0      	pop	{r4, r5, r6, r7, pc}
    12ae:	0001      	movs	r1, r0
    12b0:	a803      	add	r0, sp, #12
    12b2:	f000 fa51 	bl	1758 <_ZN2QP7QXMutex4initEj>
    12b6:	a803      	add	r0, sp, #12
    12b8:	f000 fa52 	bl	1760 <_ZN2QP7QXMutex4lockEv>
    12bc:	e7d1      	b.n	1262 <_ZN2QP2QF8publish_EPKNS_4QEvtE+0x52>
    12be:	46c0      	nop			; (mov r8, r8)
    12c0:	20000788 	.word	0x20000788
    12c4:	00003259 	.word	0x00003259
    12c8:	20000784 	.word	0x20000784
    12cc:	200006c0 	.word	0x200006c0
    12d0:	0000ffff 	.word	0x0000ffff

000012d4 <_ZNK2QP7QActive9subscribeEi>:
    12d4:	6b03      	ldr	r3, [r0, #48]	; 0x30
    12d6:	b570      	push	{r4, r5, r6, lr}
    12d8:	000c      	movs	r4, r1
    12da:	1e5d      	subs	r5, r3, #1
    12dc:	2903      	cmp	r1, #3
    12de:	dd0a      	ble.n	12f6 <_ZNK2QP7QActive9subscribeEi+0x22>
    12e0:	4a0f      	ldr	r2, [pc, #60]	; (1320 <_ZNK2QP7QActive9subscribeEi+0x4c>)
    12e2:	6812      	ldr	r2, [r2, #0]
    12e4:	4291      	cmp	r1, r2
    12e6:	da06      	bge.n	12f6 <_ZNK2QP7QActive9subscribeEi+0x22>
    12e8:	2d1f      	cmp	r5, #31
    12ea:	d804      	bhi.n	12f6 <_ZNK2QP7QActive9subscribeEi+0x22>
    12ec:	4a0d      	ldr	r2, [pc, #52]	; (1324 <_ZNK2QP7QActive9subscribeEi+0x50>)
    12ee:	009b      	lsls	r3, r3, #2
    12f0:	589b      	ldr	r3, [r3, r2]
    12f2:	4298      	cmp	r0, r3
    12f4:	d004      	beq.n	1300 <_ZNK2QP7QActive9subscribeEi+0x2c>
    12f6:	2196      	movs	r1, #150	; 0x96
    12f8:	480b      	ldr	r0, [pc, #44]	; (1328 <_ZNK2QP7QActive9subscribeEi+0x54>)
    12fa:	0049      	lsls	r1, r1, #1
    12fc:	f7ff fb3b 	bl	976 <Q_onAssert>
    1300:	f3ef 8210 	mrs	r2, PRIMASK
    1304:	b672      	cpsid	i
    1306:	4b09      	ldr	r3, [pc, #36]	; (132c <_ZNK2QP7QActive9subscribeEi+0x58>)
    1308:	00a4      	lsls	r4, r4, #2
    130a:	681b      	ldr	r3, [r3, #0]
    130c:	191c      	adds	r4, r3, r4
    130e:	2301      	movs	r3, #1
    1310:	40ab      	lsls	r3, r5
    1312:	6821      	ldr	r1, [r4, #0]
    1314:	430b      	orrs	r3, r1
    1316:	6023      	str	r3, [r4, #0]
    1318:	f382 8810 	msr	PRIMASK, r2
    131c:	bd70      	pop	{r4, r5, r6, pc}
    131e:	46c0      	nop			; (mov r8, r8)
    1320:	20000788 	.word	0x20000788
    1324:	200006c0 	.word	0x200006c0
    1328:	00003259 	.word	0x00003259
    132c:	20000784 	.word	0x20000784

00001330 <_ZN2QP7QActiveC1EPFjPvPKNS_4QEvtEE>:
    1330:	b510      	push	{r4, lr}
    1332:	0004      	movs	r4, r0
    1334:	f7ff fc02 	bl	b3c <_ZN2QP4QHsmC1EPFjPvPKNS_4QEvtEE>
    1338:	0020      	movs	r0, r4
    133a:	4b0a      	ldr	r3, [pc, #40]	; (1364 <_ZN2QP7QActiveC1EPFjPvPKNS_4QEvtEE+0x34>)
    133c:	300c      	adds	r0, #12
    133e:	6023      	str	r3, [r4, #0]
    1340:	f000 f814 	bl	136c <_ZN2QP7QEQueueC1Ev>
    1344:	2300      	movs	r3, #0
    1346:	0020      	movs	r0, r4
    1348:	6323      	str	r3, [r4, #48]	; 0x30
    134a:	4b07      	ldr	r3, [pc, #28]	; (1368 <_ZN2QP7QActiveC1EPFjPvPKNS_4QEvtEE+0x38>)
    134c:	3028      	adds	r0, #40	; 0x28
    134e:	6063      	str	r3, [r4, #4]
    1350:	2104      	movs	r1, #4
    1352:	f7ff fd19 	bl	d88 <_ZN2QP2QF5bzeroEPvj>
    1356:	0020      	movs	r0, r4
    1358:	2104      	movs	r1, #4
    135a:	302c      	adds	r0, #44	; 0x2c
    135c:	f7ff fd14 	bl	d88 <_ZN2QP2QF5bzeroEPvj>
    1360:	0020      	movs	r0, r4
    1362:	bd10      	pop	{r4, pc}
    1364:	000032a0 	.word	0x000032a0
    1368:	00000a91 	.word	0x00000a91

0000136c <_ZN2QP7QEQueueC1Ev>:
    136c:	2300      	movs	r3, #0
    136e:	6003      	str	r3, [r0, #0]
    1370:	6043      	str	r3, [r0, #4]
    1372:	60c3      	str	r3, [r0, #12]
    1374:	6083      	str	r3, [r0, #8]
    1376:	6103      	str	r3, [r0, #16]
    1378:	6183      	str	r3, [r0, #24]
    137a:	6143      	str	r3, [r0, #20]
    137c:	4770      	bx	lr

0000137e <_ZN2QP7QEQueue4initEPPKNS_4QEvtEj>:
    137e:	2300      	movs	r3, #0
    1380:	6041      	str	r1, [r0, #4]
    1382:	6003      	str	r3, [r0, #0]
    1384:	6082      	str	r2, [r0, #8]
    1386:	429a      	cmp	r2, r3
    1388:	d001      	beq.n	138e <_ZN2QP7QEQueue4initEPPKNS_4QEvtEj+0x10>
    138a:	60c3      	str	r3, [r0, #12]
    138c:	6103      	str	r3, [r0, #16]
    138e:	3201      	adds	r2, #1
    1390:	6142      	str	r2, [r0, #20]
    1392:	6943      	ldr	r3, [r0, #20]
    1394:	6183      	str	r3, [r0, #24]
    1396:	4770      	bx	lr

00001398 <_ZN2QP2QF6tickX_Ej>:
    1398:	b5f8      	push	{r3, r4, r5, r6, r7, lr}
    139a:	4e23      	ldr	r6, [pc, #140]	; (1428 <_ZN2QP2QF6tickX_Ej+0x90>)
    139c:	0105      	lsls	r5, r0, #4
    139e:	1974      	adds	r4, r6, r5
    13a0:	f3ef 8310 	mrs	r3, PRIMASK
    13a4:	b672      	cpsid	i
    13a6:	277f      	movs	r7, #127	; 0x7f
    13a8:	6861      	ldr	r1, [r4, #4]
    13aa:	2900      	cmp	r1, #0
    13ac:	d107      	bne.n	13be <_ZN2QP2QF6tickX_Ej+0x26>
    13ae:	1972      	adds	r2, r6, r5
    13b0:	6890      	ldr	r0, [r2, #8]
    13b2:	2800      	cmp	r0, #0
    13b4:	d034      	beq.n	1420 <_ZN2QP2QF6tickX_Ej+0x88>
    13b6:	6890      	ldr	r0, [r2, #8]
    13b8:	6060      	str	r0, [r4, #4]
    13ba:	6091      	str	r1, [r2, #8]
    13bc:	6861      	ldr	r1, [r4, #4]
    13be:	898a      	ldrh	r2, [r1, #12]
    13c0:	2a00      	cmp	r2, #0
    13c2:	d10e      	bne.n	13e2 <_ZN2QP2QF6tickX_Ej+0x4a>
    13c4:	684a      	ldr	r2, [r1, #4]
    13c6:	6062      	str	r2, [r4, #4]
    13c8:	78ca      	ldrb	r2, [r1, #3]
    13ca:	403a      	ands	r2, r7
    13cc:	70ca      	strb	r2, [r1, #3]
    13ce:	f383 8810 	msr	PRIMASK, r3
    13d2:	f3bf 8f6f 	isb	sy
    13d6:	0021      	movs	r1, r4
    13d8:	f3ef 8310 	mrs	r3, PRIMASK
    13dc:	b672      	cpsid	i
    13de:	000c      	movs	r4, r1
    13e0:	e7e2      	b.n	13a8 <_ZN2QP2QF6tickX_Ej+0x10>
    13e2:	898a      	ldrh	r2, [r1, #12]
    13e4:	3a01      	subs	r2, #1
    13e6:	b292      	uxth	r2, r2
    13e8:	818a      	strh	r2, [r1, #12]
    13ea:	898a      	ldrh	r2, [r1, #12]
    13ec:	2a00      	cmp	r2, #0
    13ee:	d112      	bne.n	1416 <_ZN2QP2QF6tickX_Ej+0x7e>
    13f0:	89ca      	ldrh	r2, [r1, #14]
    13f2:	6888      	ldr	r0, [r1, #8]
    13f4:	2a00      	cmp	r2, #0
    13f6:	d008      	beq.n	140a <_ZN2QP2QF6tickX_Ej+0x72>
    13f8:	000c      	movs	r4, r1
    13fa:	818a      	strh	r2, [r1, #12]
    13fc:	f383 8810 	msr	PRIMASK, r3
    1400:	6803      	ldr	r3, [r0, #0]
    1402:	4a0a      	ldr	r2, [pc, #40]	; (142c <_ZN2QP2QF6tickX_Ej+0x94>)
    1404:	69db      	ldr	r3, [r3, #28]
    1406:	4798      	blx	r3
    1408:	e7e5      	b.n	13d6 <_ZN2QP2QF6tickX_Ej+0x3e>
    140a:	684a      	ldr	r2, [r1, #4]
    140c:	6062      	str	r2, [r4, #4]
    140e:	78ca      	ldrb	r2, [r1, #3]
    1410:	403a      	ands	r2, r7
    1412:	70ca      	strb	r2, [r1, #3]
    1414:	e7f2      	b.n	13fc <_ZN2QP2QF6tickX_Ej+0x64>
    1416:	f383 8810 	msr	PRIMASK, r3
    141a:	f3bf 8f6f 	isb	sy
    141e:	e7db      	b.n	13d8 <_ZN2QP2QF6tickX_Ej+0x40>
    1420:	f383 8810 	msr	PRIMASK, r3
    1424:	bdf8      	pop	{r3, r4, r5, r6, r7, pc}
    1426:	46c0      	nop			; (mov r8, r8)
    1428:	2000078c 	.word	0x2000078c
    142c:	0000ffff 	.word	0x0000ffff

00001430 <_ZN2QP8QTimeEvtC1EPNS_7QActiveEij>:
    1430:	b570      	push	{r4, r5, r6, lr}
    1432:	001d      	movs	r5, r3
    1434:	2300      	movs	r3, #0
    1436:	0004      	movs	r4, r0
    1438:	6043      	str	r3, [r0, #4]
    143a:	8002      	strh	r2, [r0, #0]
    143c:	6081      	str	r1, [r0, #8]
    143e:	81c3      	strh	r3, [r0, #14]
    1440:	8183      	strh	r3, [r0, #12]
    1442:	2a03      	cmp	r2, #3
    1444:	dd01      	ble.n	144a <_ZN2QP8QTimeEvtC1EPNS_7QActiveEij+0x1a>
    1446:	2d01      	cmp	r5, #1
    1448:	d904      	bls.n	1454 <_ZN2QP8QTimeEvtC1EPNS_7QActiveEij+0x24>
    144a:	2196      	movs	r1, #150	; 0x96
    144c:	4804      	ldr	r0, [pc, #16]	; (1460 <_ZN2QP8QTimeEvtC1EPNS_7QActiveEij+0x30>)
    144e:	0049      	lsls	r1, r1, #1
    1450:	f7ff fa91 	bl	976 <Q_onAssert>
    1454:	2300      	movs	r3, #0
    1456:	b2ed      	uxtb	r5, r5
    1458:	70e5      	strb	r5, [r4, #3]
    145a:	0020      	movs	r0, r4
    145c:	70a3      	strb	r3, [r4, #2]
    145e:	bd70      	pop	{r4, r5, r6, pc}
    1460:	0000325f 	.word	0x0000325f

00001464 <_ZN2QP8QTimeEvtC1Ev>:
    1464:	2300      	movs	r3, #0
    1466:	6043      	str	r3, [r0, #4]
    1468:	8003      	strh	r3, [r0, #0]
    146a:	6083      	str	r3, [r0, #8]
    146c:	81c3      	strh	r3, [r0, #14]
    146e:	8183      	strh	r3, [r0, #12]
    1470:	7083      	strb	r3, [r0, #2]
    1472:	70c3      	strb	r3, [r0, #3]
    1474:	4770      	bx	lr
	...

00001478 <_ZN2QP8QTimeEvt4armXEtt>:
    1478:	b5f8      	push	{r3, r4, r5, r6, r7, lr}
    147a:	237f      	movs	r3, #127	; 0x7f
    147c:	78c5      	ldrb	r5, [r0, #3]
    147e:	0017      	movs	r7, r2
    1480:	401d      	ands	r5, r3
    1482:	8983      	ldrh	r3, [r0, #12]
    1484:	6882      	ldr	r2, [r0, #8]
    1486:	0004      	movs	r4, r0
    1488:	000e      	movs	r6, r1
    148a:	b29b      	uxth	r3, r3
    148c:	2a00      	cmp	r2, #0
    148e:	d008      	beq.n	14a2 <_ZN2QP8QTimeEvt4armXEtt+0x2a>
    1490:	2b00      	cmp	r3, #0
    1492:	d106      	bne.n	14a2 <_ZN2QP8QTimeEvt4armXEtt+0x2a>
    1494:	2900      	cmp	r1, #0
    1496:	d004      	beq.n	14a2 <_ZN2QP8QTimeEvt4armXEtt+0x2a>
    1498:	2d01      	cmp	r5, #1
    149a:	d802      	bhi.n	14a2 <_ZN2QP8QTimeEvt4armXEtt+0x2a>
    149c:	8803      	ldrh	r3, [r0, #0]
    149e:	2b03      	cmp	r3, #3
    14a0:	dc04      	bgt.n	14ac <_ZN2QP8QTimeEvt4armXEtt+0x34>
    14a2:	21c8      	movs	r1, #200	; 0xc8
    14a4:	480c      	ldr	r0, [pc, #48]	; (14d8 <_ZN2QP8QTimeEvt4armXEtt+0x60>)
    14a6:	0049      	lsls	r1, r1, #1
    14a8:	f7ff fa65 	bl	976 <Q_onAssert>
    14ac:	f3ef 8210 	mrs	r2, PRIMASK
    14b0:	b672      	cpsid	i
    14b2:	81a6      	strh	r6, [r4, #12]
    14b4:	78e3      	ldrb	r3, [r4, #3]
    14b6:	81e7      	strh	r7, [r4, #14]
    14b8:	b25b      	sxtb	r3, r3
    14ba:	2b00      	cmp	r3, #0
    14bc:	db09      	blt.n	14d2 <_ZN2QP8QTimeEvt4armXEtt+0x5a>
    14be:	2180      	movs	r1, #128	; 0x80
    14c0:	78e3      	ldrb	r3, [r4, #3]
    14c2:	012d      	lsls	r5, r5, #4
    14c4:	430b      	orrs	r3, r1
    14c6:	70e3      	strb	r3, [r4, #3]
    14c8:	4b04      	ldr	r3, [pc, #16]	; (14dc <_ZN2QP8QTimeEvt4armXEtt+0x64>)
    14ca:	195d      	adds	r5, r3, r5
    14cc:	68ab      	ldr	r3, [r5, #8]
    14ce:	6063      	str	r3, [r4, #4]
    14d0:	60ac      	str	r4, [r5, #8]
    14d2:	f382 8810 	msr	PRIMASK, r2
    14d6:	bdf8      	pop	{r3, r4, r5, r6, r7, pc}
    14d8:	0000325f 	.word	0x0000325f
    14dc:	2000078c 	.word	0x2000078c

000014e0 <_ZN2QP8QTimeEvt6disarmEv>:
    14e0:	f3ef 8210 	mrs	r2, PRIMASK
    14e4:	b672      	cpsid	i
    14e6:	2300      	movs	r3, #0
    14e8:	8981      	ldrh	r1, [r0, #12]
    14ea:	4299      	cmp	r1, r3
    14ec:	d001      	beq.n	14f2 <_ZN2QP8QTimeEvt6disarmEv+0x12>
    14ee:	8183      	strh	r3, [r0, #12]
    14f0:	3301      	adds	r3, #1
    14f2:	f382 8810 	msr	PRIMASK, r2
    14f6:	0018      	movs	r0, r3
    14f8:	4770      	bx	lr
	...

000014fc <_GLOBAL__sub_I__ZN2QP2QF12timeEvtHead_E>:
    14fc:	b510      	push	{r4, lr}
    14fe:	4c04      	ldr	r4, [pc, #16]	; (1510 <_GLOBAL__sub_I__ZN2QP2QF12timeEvtHead_E+0x14>)
    1500:	0020      	movs	r0, r4
    1502:	f7ff ffaf 	bl	1464 <_ZN2QP8QTimeEvtC1Ev>
    1506:	0020      	movs	r0, r4
    1508:	3010      	adds	r0, #16
    150a:	f7ff ffab 	bl	1464 <_ZN2QP8QTimeEvtC1Ev>
    150e:	bd10      	pop	{r4, pc}
    1510:	2000078c 	.word	0x2000078c

00001514 <_ZN2QP13QXKIdleThreadD1Ev>:
    1514:	b510      	push	{r4, lr}
    1516:	0004      	movs	r4, r0
    1518:	4b02      	ldr	r3, [pc, #8]	; (1524 <_ZN2QP13QXKIdleThreadD1Ev+0x10>)
    151a:	6003      	str	r3, [r0, #0]
    151c:	f7ff f8da 	bl	6d4 <_ZN2QP7QActiveD1Ev>
    1520:	0020      	movs	r0, r4
    1522:	bd10      	pop	{r4, pc}
    1524:	00003270 	.word	0x00003270

00001528 <_ZN2QP13QXKIdleThreadD0Ev>:
    1528:	b510      	push	{r4, lr}
    152a:	0004      	movs	r4, r0
    152c:	f7ff fff2 	bl	1514 <_ZN2QP13QXKIdleThreadD1Ev>
    1530:	0020      	movs	r0, r4
    1532:	2134      	movs	r1, #52	; 0x34
    1534:	f001 fc51 	bl	2dda <_ZdlPvj>
    1538:	0020      	movs	r0, r4
    153a:	bd10      	pop	{r4, pc}

0000153c <_ZN2QP2QF4initEv>:
    153c:	b5f8      	push	{r3, r4, r5, r6, r7, lr}
    153e:	2400      	movs	r4, #0
    1540:	4b0f      	ldr	r3, [pc, #60]	; (1580 <_ZN2QP2QF4initEv+0x44>)
    1542:	2120      	movs	r1, #32
    1544:	601c      	str	r4, [r3, #0]
    1546:	4b0f      	ldr	r3, [pc, #60]	; (1584 <_ZN2QP2QF4initEv+0x48>)
    1548:	480f      	ldr	r0, [pc, #60]	; (1588 <_ZN2QP2QF4initEv+0x4c>)
    154a:	601c      	str	r4, [r3, #0]
    154c:	4b0f      	ldr	r3, [pc, #60]	; (158c <_ZN2QP2QF4initEv+0x50>)
    154e:	601c      	str	r4, [r3, #0]
    1550:	f7ff fc1a 	bl	d88 <_ZN2QP2QF5bzeroEPvj>
    1554:	4e0e      	ldr	r6, [pc, #56]	; (1590 <_ZN2QP2QF4initEv+0x54>)
    1556:	2184      	movs	r1, #132	; 0x84
    1558:	0030      	movs	r0, r6
    155a:	f7ff fc15 	bl	d88 <_ZN2QP2QF5bzeroEPvj>
    155e:	4d0d      	ldr	r5, [pc, #52]	; (1594 <_ZN2QP2QF4initEv+0x58>)
    1560:	2118      	movs	r1, #24
    1562:	0028      	movs	r0, r5
    1564:	f7ff fc10 	bl	d88 <_ZN2QP2QF5bzeroEPvj>
    1568:	4f0b      	ldr	r7, [pc, #44]	; (1598 <_ZN2QP2QF4initEv+0x5c>)
    156a:	2134      	movs	r1, #52	; 0x34
    156c:	0038      	movs	r0, r7
    156e:	f7ff fc0b 	bl	d88 <_ZN2QP2QF5bzeroEPvj>
    1572:	2321      	movs	r3, #33	; 0x21
    1574:	6037      	str	r7, [r6, #0]
    1576:	60eb      	str	r3, [r5, #12]
    1578:	60ac      	str	r4, [r5, #8]
    157a:	f7ff fa07 	bl	98c <QXK_init>
    157e:	bdf8      	pop	{r3, r4, r5, r6, r7, pc}
    1580:	20000744 	.word	0x20000744
    1584:	20000784 	.word	0x20000784
    1588:	2000078c 	.word	0x2000078c
    158c:	20000788 	.word	0x20000788
    1590:	200006c0 	.word	0x200006c0
    1594:	200007ac 	.word	0x200007ac
    1598:	200007c4 	.word	0x200007c4

0000159c <QXK_sched_>:
    159c:	b510      	push	{r4, lr}
    159e:	4c14      	ldr	r4, [pc, #80]	; (15f0 <QXK_sched_+0x54>)
    15a0:	6960      	ldr	r0, [r4, #20]
    15a2:	f7ff fe13 	bl	11cc <_ZN2QP7QF_LOG2Em>
    15a6:	68e3      	ldr	r3, [r4, #12]
    15a8:	4283      	cmp	r3, r0
    15aa:	d300      	bcc.n	15ae <QXK_sched_+0x12>
    15ac:	6920      	ldr	r0, [r4, #16]
    15ae:	4b11      	ldr	r3, [pc, #68]	; (15f4 <QXK_sched_+0x58>)
    15b0:	0082      	lsls	r2, r0, #2
    15b2:	58d3      	ldr	r3, [r2, r3]
    15b4:	6822      	ldr	r2, [r4, #0]
    15b6:	2a00      	cmp	r2, #0
    15b8:	d111      	bne.n	15de <QXK_sched_+0x42>
    15ba:	6a99      	ldr	r1, [r3, #40]	; 0x28
    15bc:	2900      	cmp	r1, #0
    15be:	d107      	bne.n	15d0 <QXK_sched_+0x34>
    15c0:	68a2      	ldr	r2, [r4, #8]
    15c2:	4290      	cmp	r0, r2
    15c4:	d802      	bhi.n	15cc <QXK_sched_+0x30>
    15c6:	2000      	movs	r0, #0
    15c8:	6060      	str	r0, [r4, #4]
    15ca:	bd10      	pop	{r4, pc}
    15cc:	6063      	str	r3, [r4, #4]
    15ce:	e7fc      	b.n	15ca <QXK_sched_+0x2e>
    15d0:	2180      	movs	r1, #128	; 0x80
    15d2:	6063      	str	r3, [r4, #4]
    15d4:	4b08      	ldr	r3, [pc, #32]	; (15f8 <QXK_sched_+0x5c>)
    15d6:	0549      	lsls	r1, r1, #21
    15d8:	6019      	str	r1, [r3, #0]
    15da:	2000      	movs	r0, #0
    15dc:	e7f5      	b.n	15ca <QXK_sched_+0x2e>
    15de:	6b12      	ldr	r2, [r2, #48]	; 0x30
    15e0:	4290      	cmp	r0, r2
    15e2:	d0f0      	beq.n	15c6 <QXK_sched_+0x2a>
    15e4:	2280      	movs	r2, #128	; 0x80
    15e6:	6063      	str	r3, [r4, #4]
    15e8:	4b03      	ldr	r3, [pc, #12]	; (15f8 <QXK_sched_+0x5c>)
    15ea:	0552      	lsls	r2, r2, #21
    15ec:	601a      	str	r2, [r3, #0]
    15ee:	e7f4      	b.n	15da <QXK_sched_+0x3e>
    15f0:	200007ac 	.word	0x200007ac
    15f4:	200006c0 	.word	0x200006c0
    15f8:	e000ed04 	.word	0xe000ed04

000015fc <QXK_activate_>:
    15fc:	b5f7      	push	{r0, r1, r2, r4, r5, r6, r7, lr}
    15fe:	4c20      	ldr	r4, [pc, #128]	; (1680 <QXK_activate_+0x84>)
    1600:	6863      	ldr	r3, [r4, #4]
    1602:	6b1d      	ldr	r5, [r3, #48]	; 0x30
    1604:	68a3      	ldr	r3, [r4, #8]
    1606:	9301      	str	r3, [sp, #4]
    1608:	4a1e      	ldr	r2, [pc, #120]	; (1684 <QXK_activate_+0x88>)
    160a:	00ab      	lsls	r3, r5, #2
    160c:	589e      	ldr	r6, [r3, r2]
    160e:	2300      	movs	r3, #0
    1610:	60a5      	str	r5, [r4, #8]
    1612:	6063      	str	r3, [r4, #4]
    1614:	b662      	cpsie	i
    1616:	0030      	movs	r0, r6
    1618:	f7ff fc5e 	bl	ed8 <_ZN2QP7QActive4get_Ev>
    161c:	0007      	movs	r7, r0
    161e:	6833      	ldr	r3, [r6, #0]
    1620:	0001      	movs	r1, r0
    1622:	691b      	ldr	r3, [r3, #16]
    1624:	0030      	movs	r0, r6
    1626:	4798      	blx	r3
    1628:	0038      	movs	r0, r7
    162a:	f7ff fced 	bl	1008 <_ZN2QP2QF2gcEPKNS_4QEvtE>
    162e:	b672      	cpsid	i
    1630:	68f3      	ldr	r3, [r6, #12]
    1632:	2b00      	cmp	r3, #0
    1634:	d105      	bne.n	1642 <QXK_activate_+0x46>
    1636:	2201      	movs	r2, #1
    1638:	3d01      	subs	r5, #1
    163a:	40aa      	lsls	r2, r5
    163c:	6963      	ldr	r3, [r4, #20]
    163e:	4393      	bics	r3, r2
    1640:	6163      	str	r3, [r4, #20]
    1642:	6960      	ldr	r0, [r4, #20]
    1644:	f7ff fdc2 	bl	11cc <_ZN2QP7QF_LOG2Em>
    1648:	68e3      	ldr	r3, [r4, #12]
    164a:	0005      	movs	r5, r0
    164c:	4283      	cmp	r3, r0
    164e:	d300      	bcc.n	1652 <QXK_activate_+0x56>
    1650:	6925      	ldr	r5, [r4, #16]
    1652:	4a0c      	ldr	r2, [pc, #48]	; (1684 <QXK_activate_+0x88>)
    1654:	00ab      	lsls	r3, r5, #2
    1656:	58d3      	ldr	r3, [r2, r3]
    1658:	6a9a      	ldr	r2, [r3, #40]	; 0x28
    165a:	2a00      	cmp	r2, #0
    165c:	d10a      	bne.n	1674 <QXK_activate_+0x78>
    165e:	9901      	ldr	r1, [sp, #4]
    1660:	428d      	cmp	r5, r1
    1662:	d803      	bhi.n	166c <QXK_activate_+0x70>
    1664:	6062      	str	r2, [r4, #4]
    1666:	9b01      	ldr	r3, [sp, #4]
    1668:	60a3      	str	r3, [r4, #8]
    166a:	bdf7      	pop	{r0, r1, r2, r4, r5, r6, r7, pc}
    166c:	6063      	str	r3, [r4, #4]
    166e:	2d00      	cmp	r5, #0
    1670:	d1ca      	bne.n	1608 <QXK_activate_+0xc>
    1672:	e7f8      	b.n	1666 <QXK_activate_+0x6a>
    1674:	2280      	movs	r2, #128	; 0x80
    1676:	6063      	str	r3, [r4, #4]
    1678:	4b03      	ldr	r3, [pc, #12]	; (1688 <QXK_activate_+0x8c>)
    167a:	0552      	lsls	r2, r2, #21
    167c:	601a      	str	r2, [r3, #0]
    167e:	e7f2      	b.n	1666 <QXK_activate_+0x6a>
    1680:	200007ac 	.word	0x200007ac
    1684:	200006c0 	.word	0x200006c0
    1688:	e000ed04 	.word	0xe000ed04

0000168c <_ZN2QP2QF3runEv>:
    168c:	b510      	push	{r4, lr}
    168e:	b672      	cpsid	i
    1690:	2200      	movs	r2, #0
    1692:	4b07      	ldr	r3, [pc, #28]	; (16b0 <_ZN2QP2QF3runEv+0x24>)
    1694:	60da      	str	r2, [r3, #12]
    1696:	f7ff ff81 	bl	159c <QXK_sched_>
    169a:	2800      	cmp	r0, #0
    169c:	d001      	beq.n	16a2 <_ZN2QP2QF3runEv+0x16>
    169e:	f7ff ffad 	bl	15fc <QXK_activate_>
    16a2:	f7ff f919 	bl	8d8 <_ZN2QP2QF9onStartupEv>
    16a6:	b662      	cpsie	i
    16a8:	f7ff f964 	bl	974 <_ZN2QP3QXK6onIdleEv>
    16ac:	e7fc      	b.n	16a8 <_ZN2QP2QF3runEv+0x1c>
    16ae:	46c0      	nop			; (mov r8, r8)
    16b0:	200007ac 	.word	0x200007ac

000016b4 <_ZN2QP7QActive5startEjPPKNS_4QEvtEjPvjS3_>:
    16b4:	b5f8      	push	{r3, r4, r5, r6, r7, lr}
    16b6:	0004      	movs	r4, r0
    16b8:	000d      	movs	r5, r1
    16ba:	0016      	movs	r6, r2
    16bc:	001f      	movs	r7, r3
    16be:	f3ef 8305 	mrs	r3, IPSR
    16c2:	2b00      	cmp	r3, #0
    16c4:	d108      	bne.n	16d8 <_ZN2QP7QActive5startEjPPKNS_4QEvtEjPvjS3_+0x24>
    16c6:	1e4b      	subs	r3, r1, #1
    16c8:	2b1f      	cmp	r3, #31
    16ca:	d805      	bhi.n	16d8 <_ZN2QP7QActive5startEjPPKNS_4QEvtEjPvjS3_+0x24>
    16cc:	9b06      	ldr	r3, [sp, #24]
    16ce:	2b00      	cmp	r3, #0
    16d0:	d102      	bne.n	16d8 <_ZN2QP7QActive5startEjPPKNS_4QEvtEjPvjS3_+0x24>
    16d2:	9b07      	ldr	r3, [sp, #28]
    16d4:	2b00      	cmp	r3, #0
    16d6:	d004      	beq.n	16e2 <_ZN2QP7QActive5startEjPPKNS_4QEvtEjPvjS3_+0x2e>
    16d8:	21fa      	movs	r1, #250	; 0xfa
    16da:	4813      	ldr	r0, [pc, #76]	; (1728 <_ZN2QP7QActive5startEjPPKNS_4QEvtEjPvjS3_+0x74>)
    16dc:	0049      	lsls	r1, r1, #1
    16de:	f7ff f94a 	bl	976 <Q_onAssert>
    16e2:	0020      	movs	r0, r4
    16e4:	003a      	movs	r2, r7
    16e6:	300c      	adds	r0, #12
    16e8:	0031      	movs	r1, r6
    16ea:	f7ff fe48 	bl	137e <_ZN2QP7QEQueue4initEPPKNS_4QEvtEj>
    16ee:	2300      	movs	r3, #0
    16f0:	6325      	str	r5, [r4, #48]	; 0x30
    16f2:	62a3      	str	r3, [r4, #40]	; 0x28
    16f4:	f3ef 8510 	mrs	r5, PRIMASK
    16f8:	b672      	cpsid	i
    16fa:	0020      	movs	r0, r4
    16fc:	f7ff fb2a 	bl	d54 <_ZN2QP2QF4add_EPNS_7QActiveE>
    1700:	f385 8810 	msr	PRIMASK, r5
    1704:	6823      	ldr	r3, [r4, #0]
    1706:	9908      	ldr	r1, [sp, #32]
    1708:	689b      	ldr	r3, [r3, #8]
    170a:	0020      	movs	r0, r4
    170c:	4798      	blx	r3
    170e:	f3ef 8410 	mrs	r4, PRIMASK
    1712:	b672      	cpsid	i
    1714:	f7ff ff42 	bl	159c <QXK_sched_>
    1718:	2800      	cmp	r0, #0
    171a:	d001      	beq.n	1720 <_ZN2QP7QActive5startEjPPKNS_4QEvtEjPvjS3_+0x6c>
    171c:	f7ff ff6e 	bl	15fc <QXK_activate_>
    1720:	f384 8810 	msr	PRIMASK, r4
    1724:	bdf8      	pop	{r3, r4, r5, r6, r7, pc}
    1726:	46c0      	nop			; (mov r8, r8)
    1728:	00003294 	.word	0x00003294

0000172c <_GLOBAL__sub_I_QXK_attr_>:
    172c:	b510      	push	{r4, lr}
    172e:	4c06      	ldr	r4, [pc, #24]	; (1748 <_GLOBAL__sub_I_QXK_attr_+0x1c>)
    1730:	2100      	movs	r1, #0
    1732:	0020      	movs	r0, r4
    1734:	f7ff fdfc 	bl	1330 <_ZN2QP7QActiveC1EPFjPvPKNS_4QEvtEE>
    1738:	4b04      	ldr	r3, [pc, #16]	; (174c <_GLOBAL__sub_I_QXK_attr_+0x20>)
    173a:	4a05      	ldr	r2, [pc, #20]	; (1750 <_GLOBAL__sub_I_QXK_attr_+0x24>)
    173c:	4905      	ldr	r1, [pc, #20]	; (1754 <_GLOBAL__sub_I_QXK_attr_+0x28>)
    173e:	0020      	movs	r0, r4
    1740:	6023      	str	r3, [r4, #0]
    1742:	f001 fb43 	bl	2dcc <__aeabi_atexit>
    1746:	bd10      	pop	{r4, pc}
    1748:	200007c4 	.word	0x200007c4
    174c:	00003270 	.word	0x00003270
    1750:	20000000 	.word	0x20000000
    1754:	00001515 	.word	0x00001515

00001758 <_ZN2QP7QXMutex4initEj>:
    1758:	23ff      	movs	r3, #255	; 0xff
    175a:	6001      	str	r1, [r0, #0]
    175c:	6043      	str	r3, [r0, #4]
    175e:	4770      	bx	lr

00001760 <_ZN2QP7QXMutex4lockEv>:
    1760:	b570      	push	{r4, r5, r6, lr}
    1762:	0004      	movs	r4, r0
    1764:	f3ef 8510 	mrs	r5, PRIMASK
    1768:	b672      	cpsid	i
    176a:	f3ef 8305 	mrs	r3, IPSR
    176e:	2b00      	cmp	r3, #0
    1770:	d102      	bne.n	1778 <_ZN2QP7QXMutex4lockEv+0x18>
    1772:	6843      	ldr	r3, [r0, #4]
    1774:	2bff      	cmp	r3, #255	; 0xff
    1776:	d004      	beq.n	1782 <_ZN2QP7QXMutex4lockEv+0x22>
    1778:	21af      	movs	r1, #175	; 0xaf
    177a:	480b      	ldr	r0, [pc, #44]	; (17a8 <_ZN2QP7QXMutex4lockEv+0x48>)
    177c:	0089      	lsls	r1, r1, #2
    177e:	f7ff f8fa 	bl	976 <Q_onAssert>
    1782:	4b0a      	ldr	r3, [pc, #40]	; (17ac <_ZN2QP7QXMutex4lockEv+0x4c>)
    1784:	68da      	ldr	r2, [r3, #12]
    1786:	6062      	str	r2, [r4, #4]
    1788:	691a      	ldr	r2, [r3, #16]
    178a:	68d9      	ldr	r1, [r3, #12]
    178c:	60a2      	str	r2, [r4, #8]
    178e:	6822      	ldr	r2, [r4, #0]
    1790:	4291      	cmp	r1, r2
    1792:	d200      	bcs.n	1796 <_ZN2QP7QXMutex4lockEv+0x36>
    1794:	60da      	str	r2, [r3, #12]
    1796:	681a      	ldr	r2, [r3, #0]
    1798:	1e11      	subs	r1, r2, #0
    179a:	d000      	beq.n	179e <_ZN2QP7QXMutex4lockEv+0x3e>
    179c:	6b11      	ldr	r1, [r2, #48]	; 0x30
    179e:	6119      	str	r1, [r3, #16]
    17a0:	f385 8810 	msr	PRIMASK, r5
    17a4:	bd70      	pop	{r4, r5, r6, pc}
    17a6:	46c0      	nop			; (mov r8, r8)
    17a8:	000032c4 	.word	0x000032c4
    17ac:	200007ac 	.word	0x200007ac

000017b0 <_ZN2QP7QXMutex6unlockEv>:
    17b0:	b570      	push	{r4, r5, r6, lr}
    17b2:	0004      	movs	r4, r0
    17b4:	f3ef 8510 	mrs	r5, PRIMASK
    17b8:	b672      	cpsid	i
    17ba:	f3ef 8305 	mrs	r3, IPSR
    17be:	2b00      	cmp	r3, #0
    17c0:	d102      	bne.n	17c8 <_ZN2QP7QXMutex6unlockEv+0x18>
    17c2:	6843      	ldr	r3, [r0, #4]
    17c4:	2bff      	cmp	r3, #255	; 0xff
    17c6:	d104      	bne.n	17d2 <_ZN2QP7QXMutex6unlockEv+0x22>
    17c8:	21c8      	movs	r1, #200	; 0xc8
    17ca:	480b      	ldr	r0, [pc, #44]	; (17f8 <_ZN2QP7QXMutex6unlockEv+0x48>)
    17cc:	0089      	lsls	r1, r1, #2
    17ce:	f7ff f8d2 	bl	976 <Q_onAssert>
    17d2:	23ff      	movs	r3, #255	; 0xff
    17d4:	6862      	ldr	r2, [r4, #4]
    17d6:	68a1      	ldr	r1, [r4, #8]
    17d8:	6063      	str	r3, [r4, #4]
    17da:	4b08      	ldr	r3, [pc, #32]	; (17fc <_ZN2QP7QXMutex6unlockEv+0x4c>)
    17dc:	6119      	str	r1, [r3, #16]
    17de:	68d9      	ldr	r1, [r3, #12]
    17e0:	428a      	cmp	r2, r1
    17e2:	d206      	bcs.n	17f2 <_ZN2QP7QXMutex6unlockEv+0x42>
    17e4:	60da      	str	r2, [r3, #12]
    17e6:	f7ff fed9 	bl	159c <QXK_sched_>
    17ea:	2800      	cmp	r0, #0
    17ec:	d001      	beq.n	17f2 <_ZN2QP7QXMutex6unlockEv+0x42>
    17ee:	f7ff ff05 	bl	15fc <QXK_activate_>
    17f2:	f385 8810 	msr	PRIMASK, r5
    17f6:	bd70      	pop	{r4, r5, r6, pc}
    17f8:	000032c4 	.word	0x000032c4
    17fc:	200007ac 	.word	0x200007ac

00001800 <_ZN5AOADC4RootEPS_PKN2QP4QEvtE>:
    1800:	880b      	ldrh	r3, [r1, #0]
    1802:	2b03      	cmp	r3, #3
    1804:	d008      	beq.n	1818 <_ZN5AOADC4RootEPS_PKN2QP4QEvtE+0x18>
    1806:	d805      	bhi.n	1814 <_ZN5AOADC4RootEPS_PKN2QP4QEvtE+0x14>
    1808:	2b00      	cmp	r3, #0
    180a:	d109      	bne.n	1820 <_ZN5AOADC4RootEPS_PKN2QP4QEvtE+0x20>
    180c:	4b05      	ldr	r3, [pc, #20]	; (1824 <_ZN5AOADC4RootEPS_PKN2QP4QEvtE+0x24>)
    180e:	6083      	str	r3, [r0, #8]
    1810:	2000      	movs	r0, #0
    1812:	e004      	b.n	181e <_ZN5AOADC4RootEPS_PKN2QP4QEvtE+0x1e>
    1814:	2b1d      	cmp	r3, #29
    1816:	d1f9      	bne.n	180c <_ZN5AOADC4RootEPS_PKN2QP4QEvtE+0xc>
    1818:	4b03      	ldr	r3, [pc, #12]	; (1828 <_ZN5AOADC4RootEPS_PKN2QP4QEvtE+0x28>)
    181a:	6083      	str	r3, [r0, #8]
    181c:	2008      	movs	r0, #8
    181e:	4770      	bx	lr
    1820:	2003      	movs	r0, #3
    1822:	e7fc      	b.n	181e <_ZN5AOADC4RootEPS_PKN2QP4QEvtE+0x1e>
    1824:	00000a91 	.word	0x00000a91
    1828:	0000187d 	.word	0x0000187d

0000182c <_ZN5AOADC6NormalEPS_PKN2QP4QEvtE>:
    182c:	880b      	ldrh	r3, [r1, #0]
    182e:	3b01      	subs	r3, #1
    1830:	2b01      	cmp	r3, #1
    1832:	d903      	bls.n	183c <_ZN5AOADC6NormalEPS_PKN2QP4QEvtE+0x10>
    1834:	4b02      	ldr	r3, [pc, #8]	; (1840 <_ZN5AOADC6NormalEPS_PKN2QP4QEvtE+0x14>)
    1836:	6083      	str	r3, [r0, #8]
    1838:	2000      	movs	r0, #0
    183a:	4770      	bx	lr
    183c:	2003      	movs	r0, #3
    183e:	e7fc      	b.n	183a <_ZN5AOADC6NormalEPS_PKN2QP4QEvtE+0xe>
    1840:	000019fd 	.word	0x000019fd

00001844 <_ZN5AOADC18InitialPseudoStateEPS_PKN2QP4QEvtE>:
    1844:	b510      	push	{r4, lr}
    1846:	0004      	movs	r4, r0
    1848:	211b      	movs	r1, #27
    184a:	f7ff fd43 	bl	12d4 <_ZNK2QP7QActive9subscribeEi>
    184e:	0020      	movs	r0, r4
    1850:	211d      	movs	r1, #29
    1852:	f7ff fd3f 	bl	12d4 <_ZNK2QP7QActive9subscribeEi>
    1856:	0020      	movs	r0, r4
    1858:	2121      	movs	r1, #33	; 0x21
    185a:	f7ff fd3b 	bl	12d4 <_ZNK2QP7QActive9subscribeEi>
    185e:	0020      	movs	r0, r4
    1860:	2120      	movs	r1, #32
    1862:	f7ff fd37 	bl	12d4 <_ZNK2QP7QActive9subscribeEi>
    1866:	0020      	movs	r0, r4
    1868:	211f      	movs	r1, #31
    186a:	f7ff fd33 	bl	12d4 <_ZNK2QP7QActive9subscribeEi>
    186e:	4b02      	ldr	r3, [pc, #8]	; (1878 <_ZN5AOADC18InitialPseudoStateEPS_PKN2QP4QEvtE+0x34>)
    1870:	2008      	movs	r0, #8
    1872:	60a3      	str	r3, [r4, #8]
    1874:	bd10      	pop	{r4, pc}
    1876:	46c0      	nop			; (mov r8, r8)
    1878:	00001801 	.word	0x00001801

0000187c <_ZN5AOADC7StoppedEPS_PKN2QP4QEvtE>:
    187c:	880b      	ldrh	r3, [r1, #0]
    187e:	b570      	push	{r4, r5, r6, lr}
    1880:	0004      	movs	r4, r0
    1882:	000d      	movs	r5, r1
    1884:	2b1b      	cmp	r3, #27
    1886:	d017      	beq.n	18b8 <_ZN5AOADC7StoppedEPS_PKN2QP4QEvtE+0x3c>
    1888:	d806      	bhi.n	1898 <_ZN5AOADC7StoppedEPS_PKN2QP4QEvtE+0x1c>
    188a:	3b01      	subs	r3, #1
    188c:	2b01      	cmp	r3, #1
    188e:	d911      	bls.n	18b4 <_ZN5AOADC7StoppedEPS_PKN2QP4QEvtE+0x38>
    1890:	4b16      	ldr	r3, [pc, #88]	; (18ec <_ZN5AOADC7StoppedEPS_PKN2QP4QEvtE+0x70>)
    1892:	2000      	movs	r0, #0
    1894:	60a3      	str	r3, [r4, #8]
    1896:	e028      	b.n	18ea <_ZN5AOADC7StoppedEPS_PKN2QP4QEvtE+0x6e>
    1898:	2b1d      	cmp	r3, #29
    189a:	d1f9      	bne.n	1890 <_ZN5AOADC7StoppedEPS_PKN2QP4QEvtE+0x14>
    189c:	200a      	movs	r0, #10
    189e:	888c      	ldrh	r4, [r1, #4]
    18a0:	f7ff f86e 	bl	980 <_ZN2FW3EvtnwEj>
    18a4:	231e      	movs	r3, #30
    18a6:	8003      	strh	r3, [r0, #0]
    18a8:	2300      	movs	r3, #0
    18aa:	8084      	strh	r4, [r0, #4]
    18ac:	7183      	strb	r3, [r0, #6]
    18ae:	8103      	strh	r3, [r0, #8]
    18b0:	f7ff fcae 	bl	1210 <_ZN2QP2QF8publish_EPKNS_4QEvtE>
    18b4:	2003      	movs	r0, #3
    18b6:	e018      	b.n	18ea <_ZN5AOADC7StoppedEPS_PKN2QP4QEvtE+0x6e>
    18b8:	2101      	movs	r1, #1
    18ba:	2002      	movs	r0, #2
    18bc:	f7fe fc82 	bl	1c4 <_Z13pinPeripheralhm>
    18c0:	2101      	movs	r1, #1
    18c2:	2003      	movs	r0, #3
    18c4:	f7fe fc7e 	bl	1c4 <_Z13pinPeripheralhm>
    18c8:	f7fe fc18 	bl	fc <_Z8adc_initv>
    18cc:	200a      	movs	r0, #10
    18ce:	88ad      	ldrh	r5, [r5, #4]
    18d0:	f7ff f856 	bl	980 <_ZN2FW3EvtnwEj>
    18d4:	231c      	movs	r3, #28
    18d6:	8003      	strh	r3, [r0, #0]
    18d8:	2300      	movs	r3, #0
    18da:	8085      	strh	r5, [r0, #4]
    18dc:	7183      	strb	r3, [r0, #6]
    18de:	8103      	strh	r3, [r0, #8]
    18e0:	f7ff fc96 	bl	1210 <_ZN2QP2QF8publish_EPKNS_4QEvtE>
    18e4:	2008      	movs	r0, #8
    18e6:	4b02      	ldr	r3, [pc, #8]	; (18f0 <_ZN5AOADC7StoppedEPS_PKN2QP4QEvtE+0x74>)
    18e8:	60a3      	str	r3, [r4, #8]
    18ea:	bd70      	pop	{r4, r5, r6, pc}
    18ec:	00001801 	.word	0x00001801
    18f0:	000019fd 	.word	0x000019fd

000018f4 <_ZN5AOADCC1Ev>:
    18f4:	b510      	push	{r4, lr}
    18f6:	0004      	movs	r4, r0
    18f8:	4906      	ldr	r1, [pc, #24]	; (1914 <_ZN5AOADCC1Ev+0x20>)
    18fa:	f7ff fd19 	bl	1330 <_ZN2QP7QActiveC1EPFjPvPKNS_4QEvtEE>
    18fe:	4b06      	ldr	r3, [pc, #24]	; (1918 <_ZN5AOADCC1Ev+0x24>)
    1900:	2206      	movs	r2, #6
    1902:	6023      	str	r3, [r4, #0]
    1904:	0023      	movs	r3, r4
    1906:	3354      	adds	r3, #84	; 0x54
    1908:	701a      	strb	r2, [r3, #0]
    190a:	4b04      	ldr	r3, [pc, #16]	; (191c <_ZN5AOADCC1Ev+0x28>)
    190c:	0020      	movs	r0, r4
    190e:	65a3      	str	r3, [r4, #88]	; 0x58
    1910:	bd10      	pop	{r4, pc}
    1912:	46c0      	nop			; (mov r8, r8)
    1914:	00001845 	.word	0x00001845
    1918:	000030c8 	.word	0x000030c8
    191c:	000032ec 	.word	0x000032ec

00001920 <_ZN2FW4PipeIhE10WriteBlockEPKhm>:
    1920:	b570      	push	{r4, r5, r6, lr}
    1922:	0004      	movs	r4, r0
    1924:	000d      	movs	r5, r1
    1926:	0016      	movs	r6, r2
    1928:	2900      	cmp	r1, #0
    192a:	d005      	beq.n	1938 <_ZN2FW4PipeIhE10WriteBlockEPKhm+0x18>
    192c:	68c3      	ldr	r3, [r0, #12]
    192e:	18d2      	adds	r2, r2, r3
    1930:	6883      	ldr	r3, [r0, #8]
    1932:	3301      	adds	r3, #1
    1934:	429a      	cmp	r2, r3
    1936:	d903      	bls.n	1940 <_ZN2FW4PipeIhE10WriteBlockEPKhm+0x20>
    1938:	21b0      	movs	r1, #176	; 0xb0
    193a:	4809      	ldr	r0, [pc, #36]	; (1960 <_ZN2FW4PipeIhE10WriteBlockEPKhm+0x40>)
    193c:	f7ff f81b 	bl	976 <Q_onAssert>
    1940:	2300      	movs	r3, #0
    1942:	42b3      	cmp	r3, r6
    1944:	d006      	beq.n	1954 <_ZN2FW4PipeIhE10WriteBlockEPKhm+0x34>
    1946:	6862      	ldr	r2, [r4, #4]
    1948:	5ce9      	ldrb	r1, [r5, r3]
    194a:	68e0      	ldr	r0, [r4, #12]
    194c:	18d2      	adds	r2, r2, r3
    194e:	5411      	strb	r1, [r2, r0]
    1950:	3301      	adds	r3, #1
    1952:	e7f6      	b.n	1942 <_ZN2FW4PipeIhE10WriteBlockEPKhm+0x22>
    1954:	68e2      	ldr	r2, [r4, #12]
    1956:	189b      	adds	r3, r3, r2
    1958:	68a2      	ldr	r2, [r4, #8]
    195a:	4013      	ands	r3, r2
    195c:	60e3      	str	r3, [r4, #12]
    195e:	bd70      	pop	{r4, r5, r6, pc}
    1960:	000032e2 	.word	0x000032e2

00001964 <_ZN2FW4PipeIhE5WriteEPKhmPb>:
    1964:	b5f0      	push	{r4, r5, r6, r7, lr}
    1966:	b085      	sub	sp, #20
    1968:	0006      	movs	r6, r0
    196a:	9101      	str	r1, [sp, #4]
    196c:	0015      	movs	r5, r2
    196e:	001f      	movs	r7, r3
    1970:	f3ef 8310 	mrs	r3, PRIMASK
    1974:	9303      	str	r3, [sp, #12]
    1976:	b672      	cpsid	i
    1978:	2900      	cmp	r1, #0
    197a:	d103      	bne.n	1984 <_ZN2FW4PipeIhE5WriteEPKhmPb+0x20>
    197c:	2174      	movs	r1, #116	; 0x74
    197e:	481e      	ldr	r0, [pc, #120]	; (19f8 <_ZN2FW4PipeIhE5WriteEPKhmPb+0x94>)
    1980:	f7fe fff9 	bl	976 <Q_onAssert>
    1984:	6933      	ldr	r3, [r6, #16]
    1986:	68b4      	ldr	r4, [r6, #8]
    1988:	9302      	str	r3, [sp, #8]
    198a:	68f3      	ldr	r3, [r6, #12]
    198c:	9300      	str	r3, [sp, #0]
    198e:	9b02      	ldr	r3, [sp, #8]
    1990:	9a00      	ldr	r2, [sp, #0]
    1992:	3b01      	subs	r3, #1
    1994:	1a9b      	subs	r3, r3, r2
    1996:	4023      	ands	r3, r4
    1998:	429d      	cmp	r5, r3
    199a:	d906      	bls.n	19aa <_ZN2FW4PipeIhE5WriteEPKhmPb+0x46>
    199c:	2301      	movs	r3, #1
    199e:	1e3d      	subs	r5, r7, #0
    19a0:	7533      	strb	r3, [r6, #20]
    19a2:	d018      	beq.n	19d6 <_ZN2FW4PipeIhE5WriteEPKhmPb+0x72>
    19a4:	2500      	movs	r5, #0
    19a6:	2300      	movs	r3, #0
    19a8:	e014      	b.n	19d4 <_ZN2FW4PipeIhE5WriteEPKhmPb+0x70>
    19aa:	2300      	movs	r3, #0
    19ac:	7533      	strb	r3, [r6, #20]
    19ae:	9b00      	ldr	r3, [sp, #0]
    19b0:	3401      	adds	r4, #1
    19b2:	18eb      	adds	r3, r5, r3
    19b4:	42a3      	cmp	r3, r4
    19b6:	d814      	bhi.n	19e2 <_ZN2FW4PipeIhE5WriteEPKhmPb+0x7e>
    19b8:	002a      	movs	r2, r5
    19ba:	9901      	ldr	r1, [sp, #4]
    19bc:	0030      	movs	r0, r6
    19be:	f7ff ffaf 	bl	1920 <_ZN2FW4PipeIhE10WriteBlockEPKhm>
    19c2:	2f00      	cmp	r7, #0
    19c4:	d007      	beq.n	19d6 <_ZN2FW4PipeIhE5WriteEPKhmPb+0x72>
    19c6:	2d00      	cmp	r5, #0
    19c8:	d0ec      	beq.n	19a4 <_ZN2FW4PipeIhE5WriteEPKhmPb+0x40>
    19ca:	9b02      	ldr	r3, [sp, #8]
    19cc:	9a00      	ldr	r2, [sp, #0]
    19ce:	4293      	cmp	r3, r2
    19d0:	d1e9      	bne.n	19a6 <_ZN2FW4PipeIhE5WriteEPKhmPb+0x42>
    19d2:	2301      	movs	r3, #1
    19d4:	703b      	strb	r3, [r7, #0]
    19d6:	9b03      	ldr	r3, [sp, #12]
    19d8:	f383 8810 	msr	PRIMASK, r3
    19dc:	0028      	movs	r0, r5
    19de:	b005      	add	sp, #20
    19e0:	bdf0      	pop	{r4, r5, r6, r7, pc}
    19e2:	9b00      	ldr	r3, [sp, #0]
    19e4:	9901      	ldr	r1, [sp, #4]
    19e6:	1ae4      	subs	r4, r4, r3
    19e8:	0022      	movs	r2, r4
    19ea:	0030      	movs	r0, r6
    19ec:	f7ff ff98 	bl	1920 <_ZN2FW4PipeIhE10WriteBlockEPKhm>
    19f0:	9b01      	ldr	r3, [sp, #4]
    19f2:	1b2a      	subs	r2, r5, r4
    19f4:	1919      	adds	r1, r3, r4
    19f6:	e7e1      	b.n	19bc <_ZN2FW4PipeIhE5WriteEPKhmPb+0x58>
    19f8:	000032e2 	.word	0x000032e2

000019fc <_ZN5AOADC7StartedEPS_PKN2QP4QEvtE>:
    19fc:	880b      	ldrh	r3, [r1, #0]
    19fe:	b573      	push	{r0, r1, r4, r5, r6, lr}
    1a00:	0004      	movs	r4, r0
    1a02:	000d      	movs	r5, r1
    1a04:	2b1d      	cmp	r3, #29
    1a06:	d044      	beq.n	1a92 <_ZN5AOADC7StartedEPS_PKN2QP4QEvtE+0x96>
    1a08:	d80a      	bhi.n	1a20 <_ZN5AOADC7StartedEPS_PKN2QP4QEvtE+0x24>
    1a0a:	2b00      	cmp	r3, #0
    1a0c:	d004      	beq.n	1a18 <_ZN5AOADC7StartedEPS_PKN2QP4QEvtE+0x1c>
    1a0e:	2003      	movs	r0, #3
    1a10:	2b02      	cmp	r3, #2
    1a12:	d93d      	bls.n	1a90 <_ZN5AOADC7StartedEPS_PKN2QP4QEvtE+0x94>
    1a14:	4283      	cmp	r3, r0
    1a16:	d038      	beq.n	1a8a <_ZN5AOADC7StartedEPS_PKN2QP4QEvtE+0x8e>
    1a18:	4b41      	ldr	r3, [pc, #260]	; (1b20 <_ZN5AOADC7StartedEPS_PKN2QP4QEvtE+0x124>)
    1a1a:	2000      	movs	r0, #0
    1a1c:	60a3      	str	r3, [r4, #8]
    1a1e:	e037      	b.n	1a90 <_ZN5AOADC7StartedEPS_PKN2QP4QEvtE+0x94>
    1a20:	2b20      	cmp	r3, #32
    1a22:	d049      	beq.n	1ab8 <_ZN5AOADC7StartedEPS_PKN2QP4QEvtE+0xbc>
    1a24:	2b21      	cmp	r3, #33	; 0x21
    1a26:	d100      	bne.n	1a2a <_ZN5AOADC7StartedEPS_PKN2QP4QEvtE+0x2e>
    1a28:	e073      	b.n	1b12 <_ZN5AOADC7StartedEPS_PKN2QP4QEvtE+0x116>
    1a2a:	2b1f      	cmp	r3, #31
    1a2c:	d1f4      	bne.n	1a18 <_ZN5AOADC7StartedEPS_PKN2QP4QEvtE+0x1c>
    1a2e:	688e      	ldr	r6, [r1, #8]
    1a30:	79cc      	ldrb	r4, [r1, #7]
    1a32:	f3ef 8310 	mrs	r3, PRIMASK
    1a36:	b672      	cpsid	i
    1a38:	f383 8810 	msr	PRIMASK, r3
    1a3c:	6932      	ldr	r2, [r6, #16]
    1a3e:	68f3      	ldr	r3, [r6, #12]
    1a40:	1a9b      	subs	r3, r3, r2
    1a42:	68b2      	ldr	r2, [r6, #8]
    1a44:	421a      	tst	r2, r3
    1a46:	d003      	beq.n	1a50 <_ZN5AOADC7StartedEPS_PKN2QP4QEvtE+0x54>
    1a48:	21c2      	movs	r1, #194	; 0xc2
    1a4a:	4836      	ldr	r0, [pc, #216]	; (1b24 <_ZN5AOADC7StartedEPS_PKN2QP4QEvtE+0x128>)
    1a4c:	f7fe ff93 	bl	976 <Q_onAssert>
    1a50:	3c07      	subs	r4, #7
    1a52:	b2e0      	uxtb	r0, r4
    1a54:	2803      	cmp	r0, #3
    1a56:	d82a      	bhi.n	1aae <_ZN5AOADC7StartedEPS_PKN2QP4QEvtE+0xb2>
    1a58:	f7fe fb86 	bl	168 <_Z8adc_readh>
    1a5c:	a901      	add	r1, sp, #4
    1a5e:	1203      	asrs	r3, r0, #8
    1a60:	700b      	strb	r3, [r1, #0]
    1a62:	7048      	strb	r0, [r1, #1]
    1a64:	2300      	movs	r3, #0
    1a66:	2202      	movs	r2, #2
    1a68:	0030      	movs	r0, r6
    1a6a:	f7ff ff7b 	bl	1964 <_ZN2FW4PipeIhE5WriteEPKhmPb>
    1a6e:	200c      	movs	r0, #12
    1a70:	79ac      	ldrb	r4, [r5, #6]
    1a72:	f7fe ff85 	bl	980 <_ZN2FW3EvtnwEj>
    1a76:	2319      	movs	r3, #25
    1a78:	8003      	strh	r3, [r0, #0]
    1a7a:	2300      	movs	r3, #0
    1a7c:	7184      	strb	r4, [r0, #6]
    1a7e:	8083      	strh	r3, [r0, #4]
    1a80:	6083      	str	r3, [r0, #8]
    1a82:	f7ff fbc5 	bl	1210 <_ZN2QP2QF8publish_EPKNS_4QEvtE>
    1a86:	2003      	movs	r0, #3
    1a88:	e002      	b.n	1a90 <_ZN5AOADC7StartedEPS_PKN2QP4QEvtE+0x94>
    1a8a:	4b27      	ldr	r3, [pc, #156]	; (1b28 <_ZN5AOADC7StartedEPS_PKN2QP4QEvtE+0x12c>)
    1a8c:	2008      	movs	r0, #8
    1a8e:	60a3      	str	r3, [r4, #8]
    1a90:	bd76      	pop	{r1, r2, r4, r5, r6, pc}
    1a92:	200a      	movs	r0, #10
    1a94:	888d      	ldrh	r5, [r1, #4]
    1a96:	f7fe ff73 	bl	980 <_ZN2FW3EvtnwEj>
    1a9a:	231e      	movs	r3, #30
    1a9c:	8003      	strh	r3, [r0, #0]
    1a9e:	2300      	movs	r3, #0
    1aa0:	8085      	strh	r5, [r0, #4]
    1aa2:	7183      	strb	r3, [r0, #6]
    1aa4:	8103      	strh	r3, [r0, #8]
    1aa6:	f7ff fbb3 	bl	1210 <_ZN2QP2QF8publish_EPKNS_4QEvtE>
    1aaa:	4b20      	ldr	r3, [pc, #128]	; (1b2c <_ZN5AOADC7StartedEPS_PKN2QP4QEvtE+0x130>)
    1aac:	e7ee      	b.n	1a8c <_ZN5AOADC7StartedEPS_PKN2QP4QEvtE+0x90>
    1aae:	21d1      	movs	r1, #209	; 0xd1
    1ab0:	481c      	ldr	r0, [pc, #112]	; (1b24 <_ZN5AOADC7StartedEPS_PKN2QP4QEvtE+0x128>)
    1ab2:	f7fe ff60 	bl	976 <Q_onAssert>
    1ab6:	e7da      	b.n	1a6e <_ZN5AOADC7StartedEPS_PKN2QP4QEvtE+0x72>
    1ab8:	7988      	ldrb	r0, [r1, #6]
    1aba:	2803      	cmp	r0, #3
    1abc:	d014      	beq.n	1ae8 <_ZN5AOADC7StartedEPS_PKN2QP4QEvtE+0xec>
    1abe:	2804      	cmp	r0, #4
    1ac0:	d01e      	beq.n	1b00 <_ZN5AOADC7StartedEPS_PKN2QP4QEvtE+0x104>
    1ac2:	2802      	cmp	r0, #2
    1ac4:	d120      	bne.n	1b08 <_ZN5AOADC7StartedEPS_PKN2QP4QEvtE+0x10c>
    1ac6:	79cb      	ldrb	r3, [r1, #7]
    1ac8:	2101      	movs	r1, #1
    1aca:	345d      	adds	r4, #93	; 0x5d
    1acc:	7822      	ldrb	r2, [r4, #0]
    1ace:	400b      	ands	r3, r1
    1ad0:	438a      	bics	r2, r1
    1ad2:	431a      	orrs	r2, r3
    1ad4:	4916      	ldr	r1, [pc, #88]	; (1b30 <_ZN5AOADC7StartedEPS_PKN2QP4QEvtE+0x134>)
    1ad6:	7022      	strb	r2, [r4, #0]
    1ad8:	7dca      	ldrb	r2, [r1, #23]
    1ada:	3002      	adds	r0, #2
    1adc:	4382      	bics	r2, r0
    1ade:	009b      	lsls	r3, r3, #2
    1ae0:	4313      	orrs	r3, r2
    1ae2:	75cb      	strb	r3, [r1, #23]
    1ae4:	3801      	subs	r0, #1
    1ae6:	e7d3      	b.n	1a90 <_ZN5AOADC7StartedEPS_PKN2QP4QEvtE+0x94>
    1ae8:	345d      	adds	r4, #93	; 0x5d
    1aea:	7823      	ldrb	r3, [r4, #0]
    1aec:	2404      	movs	r4, #4
    1aee:	4910      	ldr	r1, [pc, #64]	; (1b30 <_ZN5AOADC7StartedEPS_PKN2QP4QEvtE+0x134>)
    1af0:	07db      	lsls	r3, r3, #31
    1af2:	7dca      	ldrb	r2, [r1, #23]
    1af4:	0fdb      	lsrs	r3, r3, #31
    1af6:	009b      	lsls	r3, r3, #2
    1af8:	43a2      	bics	r2, r4
    1afa:	4313      	orrs	r3, r2
    1afc:	75cb      	strb	r3, [r1, #23]
    1afe:	e7c7      	b.n	1a90 <_ZN5AOADC7StartedEPS_PKN2QP4QEvtE+0x94>
    1b00:	79ca      	ldrb	r2, [r1, #7]
    1b02:	4b0b      	ldr	r3, [pc, #44]	; (1b30 <_ZN5AOADC7StartedEPS_PKN2QP4QEvtE+0x134>)
    1b04:	721a      	strb	r2, [r3, #8]
    1b06:	e7be      	b.n	1a86 <_ZN5AOADC7StartedEPS_PKN2QP4QEvtE+0x8a>
    1b08:	21ef      	movs	r1, #239	; 0xef
    1b0a:	4806      	ldr	r0, [pc, #24]	; (1b24 <_ZN5AOADC7StartedEPS_PKN2QP4QEvtE+0x128>)
    1b0c:	f7fe ff33 	bl	976 <Q_onAssert>
    1b10:	e7b9      	b.n	1a86 <_ZN5AOADC7StartedEPS_PKN2QP4QEvtE+0x8a>
    1b12:	890a      	ldrh	r2, [r1, #8]
    1b14:	4b06      	ldr	r3, [pc, #24]	; (1b30 <_ZN5AOADC7StartedEPS_PKN2QP4QEvtE+0x134>)
    1b16:	839a      	strh	r2, [r3, #28]
    1b18:	88ca      	ldrh	r2, [r1, #6]
    1b1a:	841a      	strh	r2, [r3, #32]
    1b1c:	e7b3      	b.n	1a86 <_ZN5AOADC7StartedEPS_PKN2QP4QEvtE+0x8a>
    1b1e:	46c0      	nop			; (mov r8, r8)
    1b20:	00001801 	.word	0x00001801
    1b24:	000032ce 	.word	0x000032ce
    1b28:	0000182d 	.word	0x0000182d
    1b2c:	0000187d 	.word	0x0000187d
    1b30:	42002000 	.word	0x42002000

00001b34 <_ZN2FW4PipeIhE9ReadBlockEPhm>:
    1b34:	b570      	push	{r4, r5, r6, lr}
    1b36:	0004      	movs	r4, r0
    1b38:	000d      	movs	r5, r1
    1b3a:	0016      	movs	r6, r2
    1b3c:	2900      	cmp	r1, #0
    1b3e:	d005      	beq.n	1b4c <_ZN2FW4PipeIhE9ReadBlockEPhm+0x18>
    1b40:	6903      	ldr	r3, [r0, #16]
    1b42:	18d2      	adds	r2, r2, r3
    1b44:	6883      	ldr	r3, [r0, #8]
    1b46:	3301      	adds	r3, #1
    1b48:	429a      	cmp	r2, r3
    1b4a:	d903      	bls.n	1b54 <_ZN2FW4PipeIhE9ReadBlockEPhm+0x20>
    1b4c:	21b8      	movs	r1, #184	; 0xb8
    1b4e:	4809      	ldr	r0, [pc, #36]	; (1b74 <_ZN2FW4PipeIhE9ReadBlockEPhm+0x40>)
    1b50:	f7fe ff11 	bl	976 <Q_onAssert>
    1b54:	2300      	movs	r3, #0
    1b56:	42b3      	cmp	r3, r6
    1b58:	d006      	beq.n	1b68 <_ZN2FW4PipeIhE9ReadBlockEPhm+0x34>
    1b5a:	6862      	ldr	r2, [r4, #4]
    1b5c:	6921      	ldr	r1, [r4, #16]
    1b5e:	18d2      	adds	r2, r2, r3
    1b60:	5c52      	ldrb	r2, [r2, r1]
    1b62:	54ea      	strb	r2, [r5, r3]
    1b64:	3301      	adds	r3, #1
    1b66:	e7f6      	b.n	1b56 <_ZN2FW4PipeIhE9ReadBlockEPhm+0x22>
    1b68:	6922      	ldr	r2, [r4, #16]
    1b6a:	189b      	adds	r3, r3, r2
    1b6c:	68a2      	ldr	r2, [r4, #8]
    1b6e:	4013      	ands	r3, r2
    1b70:	6123      	str	r3, [r4, #16]
    1b72:	bd70      	pop	{r4, r5, r6, pc}
    1b74:	000032e2 	.word	0x000032e2

00001b78 <_ZN11AOInterrupt4RootEPS_PKN2QP4QEvtE>:
    1b78:	880b      	ldrh	r3, [r1, #0]
    1b7a:	2b03      	cmp	r3, #3
    1b7c:	d008      	beq.n	1b90 <_ZN11AOInterrupt4RootEPS_PKN2QP4QEvtE+0x18>
    1b7e:	d805      	bhi.n	1b8c <_ZN11AOInterrupt4RootEPS_PKN2QP4QEvtE+0x14>
    1b80:	2b00      	cmp	r3, #0
    1b82:	d109      	bne.n	1b98 <_ZN11AOInterrupt4RootEPS_PKN2QP4QEvtE+0x20>
    1b84:	4b05      	ldr	r3, [pc, #20]	; (1b9c <_ZN11AOInterrupt4RootEPS_PKN2QP4QEvtE+0x24>)
    1b86:	6083      	str	r3, [r0, #8]
    1b88:	2000      	movs	r0, #0
    1b8a:	e004      	b.n	1b96 <_ZN11AOInterrupt4RootEPS_PKN2QP4QEvtE+0x1e>
    1b8c:	2b3c      	cmp	r3, #60	; 0x3c
    1b8e:	d1f9      	bne.n	1b84 <_ZN11AOInterrupt4RootEPS_PKN2QP4QEvtE+0xc>
    1b90:	4b03      	ldr	r3, [pc, #12]	; (1ba0 <_ZN11AOInterrupt4RootEPS_PKN2QP4QEvtE+0x28>)
    1b92:	6083      	str	r3, [r0, #8]
    1b94:	2008      	movs	r0, #8
    1b96:	4770      	bx	lr
    1b98:	2003      	movs	r0, #3
    1b9a:	e7fc      	b.n	1b96 <_ZN11AOInterrupt4RootEPS_PKN2QP4QEvtE+0x1e>
    1b9c:	00000a91 	.word	0x00000a91
    1ba0:	00001ccd 	.word	0x00001ccd

00001ba4 <_ZN11AOInterrupt10UnassertedEPS_PKN2QP4QEvtE>:
    1ba4:	880b      	ldrh	r3, [r1, #0]
    1ba6:	0002      	movs	r2, r0
    1ba8:	2b01      	cmp	r3, #1
    1baa:	d006      	beq.n	1bba <_ZN11AOInterrupt10UnassertedEPS_PKN2QP4QEvtE+0x16>
    1bac:	2003      	movs	r0, #3
    1bae:	2b02      	cmp	r3, #2
    1bb0:	d009      	beq.n	1bc6 <_ZN11AOInterrupt10UnassertedEPS_PKN2QP4QEvtE+0x22>
    1bb2:	4b05      	ldr	r3, [pc, #20]	; (1bc8 <_ZN11AOInterrupt10UnassertedEPS_PKN2QP4QEvtE+0x24>)
    1bb4:	2000      	movs	r0, #0
    1bb6:	6093      	str	r3, [r2, #8]
    1bb8:	e005      	b.n	1bc6 <_ZN11AOInterrupt10UnassertedEPS_PKN2QP4QEvtE+0x22>
    1bba:	3260      	adds	r2, #96	; 0x60
    1bbc:	7812      	ldrb	r2, [r2, #0]
    1bbe:	2003      	movs	r0, #3
    1bc0:	4093      	lsls	r3, r2
    1bc2:	4a02      	ldr	r2, [pc, #8]	; (1bcc <_ZN11AOInterrupt10UnassertedEPS_PKN2QP4QEvtE+0x28>)
    1bc4:	6193      	str	r3, [r2, #24]
    1bc6:	4770      	bx	lr
    1bc8:	00001c2d 	.word	0x00001c2d
    1bcc:	41004400 	.word	0x41004400

00001bd0 <_ZN11AOInterrupt8AssertedEPS_PKN2QP4QEvtE>:
    1bd0:	880b      	ldrh	r3, [r1, #0]
    1bd2:	0002      	movs	r2, r0
    1bd4:	2b01      	cmp	r3, #1
    1bd6:	d006      	beq.n	1be6 <_ZN11AOInterrupt8AssertedEPS_PKN2QP4QEvtE+0x16>
    1bd8:	2003      	movs	r0, #3
    1bda:	2b02      	cmp	r3, #2
    1bdc:	d009      	beq.n	1bf2 <_ZN11AOInterrupt8AssertedEPS_PKN2QP4QEvtE+0x22>
    1bde:	4b05      	ldr	r3, [pc, #20]	; (1bf4 <_ZN11AOInterrupt8AssertedEPS_PKN2QP4QEvtE+0x24>)
    1be0:	2000      	movs	r0, #0
    1be2:	6093      	str	r3, [r2, #8]
    1be4:	e005      	b.n	1bf2 <_ZN11AOInterrupt8AssertedEPS_PKN2QP4QEvtE+0x22>
    1be6:	3260      	adds	r2, #96	; 0x60
    1be8:	7812      	ldrb	r2, [r2, #0]
    1bea:	2003      	movs	r0, #3
    1bec:	4093      	lsls	r3, r2
    1bee:	4a02      	ldr	r2, [pc, #8]	; (1bf8 <_ZN11AOInterrupt8AssertedEPS_PKN2QP4QEvtE+0x28>)
    1bf0:	6153      	str	r3, [r2, #20]
    1bf2:	4770      	bx	lr
    1bf4:	00001c2d 	.word	0x00001c2d
    1bf8:	41004400 	.word	0x41004400

00001bfc <_ZN11AOInterrupt18InitialPseudoStateEPS_PKN2QP4QEvtE>:
    1bfc:	b510      	push	{r4, lr}
    1bfe:	0004      	movs	r4, r0
    1c00:	213a      	movs	r1, #58	; 0x3a
    1c02:	f7ff fb67 	bl	12d4 <_ZNK2QP7QActive9subscribeEi>
    1c06:	0020      	movs	r0, r4
    1c08:	213c      	movs	r1, #60	; 0x3c
    1c0a:	f7ff fb63 	bl	12d4 <_ZNK2QP7QActive9subscribeEi>
    1c0e:	0020      	movs	r0, r4
    1c10:	213e      	movs	r1, #62	; 0x3e
    1c12:	f7ff fb5f 	bl	12d4 <_ZNK2QP7QActive9subscribeEi>
    1c16:	0020      	movs	r0, r4
    1c18:	213f      	movs	r1, #63	; 0x3f
    1c1a:	f7ff fb5b 	bl	12d4 <_ZNK2QP7QActive9subscribeEi>
    1c1e:	4b02      	ldr	r3, [pc, #8]	; (1c28 <_ZN11AOInterrupt18InitialPseudoStateEPS_PKN2QP4QEvtE+0x2c>)
    1c20:	2008      	movs	r0, #8
    1c22:	60a3      	str	r3, [r4, #8]
    1c24:	bd10      	pop	{r4, pc}
    1c26:	46c0      	nop			; (mov r8, r8)
    1c28:	00001b79 	.word	0x00001b79

00001c2c <_ZN11AOInterrupt7StartedEPS_PKN2QP4QEvtE>:
    1c2c:	880b      	ldrh	r3, [r1, #0]
    1c2e:	b570      	push	{r4, r5, r6, lr}
    1c30:	0004      	movs	r4, r0
    1c32:	2b03      	cmp	r3, #3
    1c34:	d029      	beq.n	1c8a <_ZN11AOInterrupt7StartedEPS_PKN2QP4QEvtE+0x5e>
    1c36:	d808      	bhi.n	1c4a <_ZN11AOInterrupt7StartedEPS_PKN2QP4QEvtE+0x1e>
    1c38:	2b01      	cmp	r3, #1
    1c3a:	d01a      	beq.n	1c72 <_ZN11AOInterrupt7StartedEPS_PKN2QP4QEvtE+0x46>
    1c3c:	2003      	movs	r0, #3
    1c3e:	2b02      	cmp	r3, #2
    1c40:	d022      	beq.n	1c88 <_ZN11AOInterrupt7StartedEPS_PKN2QP4QEvtE+0x5c>
    1c42:	4b1c      	ldr	r3, [pc, #112]	; (1cb4 <_ZN11AOInterrupt7StartedEPS_PKN2QP4QEvtE+0x88>)
    1c44:	2000      	movs	r0, #0
    1c46:	60a3      	str	r3, [r4, #8]
    1c48:	e01e      	b.n	1c88 <_ZN11AOInterrupt7StartedEPS_PKN2QP4QEvtE+0x5c>
    1c4a:	2b3e      	cmp	r3, #62	; 0x3e
    1c4c:	d021      	beq.n	1c92 <_ZN11AOInterrupt7StartedEPS_PKN2QP4QEvtE+0x66>
    1c4e:	2b3f      	cmp	r3, #63	; 0x3f
    1c50:	d025      	beq.n	1c9e <_ZN11AOInterrupt7StartedEPS_PKN2QP4QEvtE+0x72>
    1c52:	2b3c      	cmp	r3, #60	; 0x3c
    1c54:	d1f5      	bne.n	1c42 <_ZN11AOInterrupt7StartedEPS_PKN2QP4QEvtE+0x16>
    1c56:	200a      	movs	r0, #10
    1c58:	888d      	ldrh	r5, [r1, #4]
    1c5a:	f7fe fe91 	bl	980 <_ZN2FW3EvtnwEj>
    1c5e:	233d      	movs	r3, #61	; 0x3d
    1c60:	8003      	strh	r3, [r0, #0]
    1c62:	2300      	movs	r3, #0
    1c64:	8085      	strh	r5, [r0, #4]
    1c66:	7183      	strb	r3, [r0, #6]
    1c68:	8103      	strh	r3, [r0, #8]
    1c6a:	f7ff fad1 	bl	1210 <_ZN2QP2QF8publish_EPKNS_4QEvtE>
    1c6e:	4b12      	ldr	r3, [pc, #72]	; (1cb8 <_ZN11AOInterrupt7StartedEPS_PKN2QP4QEvtE+0x8c>)
    1c70:	e00c      	b.n	1c8c <_ZN11AOInterrupt7StartedEPS_PKN2QP4QEvtE+0x60>
    1c72:	3460      	adds	r4, #96	; 0x60
    1c74:	7822      	ldrb	r2, [r4, #0]
    1c76:	4811      	ldr	r0, [pc, #68]	; (1cbc <_ZN11AOInterrupt7StartedEPS_PKN2QP4QEvtE+0x90>)
    1c78:	4093      	lsls	r3, r2
    1c7a:	1812      	adds	r2, r2, r0
    1c7c:	2002      	movs	r0, #2
    1c7e:	4910      	ldr	r1, [pc, #64]	; (1cc0 <_ZN11AOInterrupt7StartedEPS_PKN2QP4QEvtE+0x94>)
    1c80:	608b      	str	r3, [r1, #8]
    1c82:	7010      	strb	r0, [r2, #0]
    1c84:	618b      	str	r3, [r1, #24]
    1c86:	3001      	adds	r0, #1
    1c88:	bd70      	pop	{r4, r5, r6, pc}
    1c8a:	4b0e      	ldr	r3, [pc, #56]	; (1cc4 <_ZN11AOInterrupt7StartedEPS_PKN2QP4QEvtE+0x98>)
    1c8c:	60a3      	str	r3, [r4, #8]
    1c8e:	2008      	movs	r0, #8
    1c90:	e7fa      	b.n	1c88 <_ZN11AOInterrupt7StartedEPS_PKN2QP4QEvtE+0x5c>
    1c92:	688b      	ldr	r3, [r1, #8]
    1c94:	6dc2      	ldr	r2, [r0, #92]	; 0x5c
    1c96:	4313      	orrs	r3, r2
    1c98:	65c3      	str	r3, [r0, #92]	; 0x5c
    1c9a:	4b0b      	ldr	r3, [pc, #44]	; (1cc8 <_ZN11AOInterrupt7StartedEPS_PKN2QP4QEvtE+0x9c>)
    1c9c:	e7f6      	b.n	1c8c <_ZN11AOInterrupt7StartedEPS_PKN2QP4QEvtE+0x60>
    1c9e:	6dc2      	ldr	r2, [r0, #92]	; 0x5c
    1ca0:	688b      	ldr	r3, [r1, #8]
    1ca2:	2003      	movs	r0, #3
    1ca4:	439a      	bics	r2, r3
    1ca6:	65e2      	str	r2, [r4, #92]	; 0x5c
    1ca8:	d1ee      	bne.n	1c88 <_ZN11AOInterrupt7StartedEPS_PKN2QP4QEvtE+0x5c>
    1caa:	4b06      	ldr	r3, [pc, #24]	; (1cc4 <_ZN11AOInterrupt7StartedEPS_PKN2QP4QEvtE+0x98>)
    1cac:	3005      	adds	r0, #5
    1cae:	60a3      	str	r3, [r4, #8]
    1cb0:	e7ea      	b.n	1c88 <_ZN11AOInterrupt7StartedEPS_PKN2QP4QEvtE+0x5c>
    1cb2:	46c0      	nop			; (mov r8, r8)
    1cb4:	00001b79 	.word	0x00001b79
    1cb8:	00001ccd 	.word	0x00001ccd
    1cbc:	41004440 	.word	0x41004440
    1cc0:	41004400 	.word	0x41004400
    1cc4:	00001ba5 	.word	0x00001ba5
    1cc8:	00001bd1 	.word	0x00001bd1

00001ccc <_ZN11AOInterrupt7StoppedEPS_PKN2QP4QEvtE>:
    1ccc:	880b      	ldrh	r3, [r1, #0]
    1cce:	b570      	push	{r4, r5, r6, lr}
    1cd0:	0004      	movs	r4, r0
    1cd2:	2003      	movs	r0, #3
    1cd4:	2b02      	cmp	r3, #2
    1cd6:	d024      	beq.n	1d22 <_ZN11AOInterrupt7StoppedEPS_PKN2QP4QEvtE+0x56>
    1cd8:	d805      	bhi.n	1ce6 <_ZN11AOInterrupt7StoppedEPS_PKN2QP4QEvtE+0x1a>
    1cda:	2b01      	cmp	r3, #1
    1cdc:	d014      	beq.n	1d08 <_ZN11AOInterrupt7StoppedEPS_PKN2QP4QEvtE+0x3c>
    1cde:	4b19      	ldr	r3, [pc, #100]	; (1d44 <_ZN11AOInterrupt7StoppedEPS_PKN2QP4QEvtE+0x78>)
    1ce0:	2000      	movs	r0, #0
    1ce2:	60a3      	str	r3, [r4, #8]
    1ce4:	e01d      	b.n	1d22 <_ZN11AOInterrupt7StoppedEPS_PKN2QP4QEvtE+0x56>
    1ce6:	2b3a      	cmp	r3, #58	; 0x3a
    1ce8:	d01c      	beq.n	1d24 <_ZN11AOInterrupt7StoppedEPS_PKN2QP4QEvtE+0x58>
    1cea:	2b3c      	cmp	r3, #60	; 0x3c
    1cec:	d1f7      	bne.n	1cde <_ZN11AOInterrupt7StoppedEPS_PKN2QP4QEvtE+0x12>
    1cee:	200a      	movs	r0, #10
    1cf0:	888c      	ldrh	r4, [r1, #4]
    1cf2:	f7fe fe45 	bl	980 <_ZN2FW3EvtnwEj>
    1cf6:	233d      	movs	r3, #61	; 0x3d
    1cf8:	8003      	strh	r3, [r0, #0]
    1cfa:	2300      	movs	r3, #0
    1cfc:	8084      	strh	r4, [r0, #4]
    1cfe:	7183      	strb	r3, [r0, #6]
    1d00:	8103      	strh	r3, [r0, #8]
    1d02:	f7ff fa85 	bl	1210 <_ZN2QP2QF8publish_EPKNS_4QEvtE>
    1d06:	e00b      	b.n	1d20 <_ZN11AOInterrupt7StoppedEPS_PKN2QP4QEvtE+0x54>
    1d08:	2200      	movs	r2, #0
    1d0a:	65e2      	str	r2, [r4, #92]	; 0x5c
    1d0c:	3460      	adds	r4, #96	; 0x60
    1d0e:	7822      	ldrb	r2, [r4, #0]
    1d10:	480d      	ldr	r0, [pc, #52]	; (1d48 <_ZN11AOInterrupt7StoppedEPS_PKN2QP4QEvtE+0x7c>)
    1d12:	4093      	lsls	r3, r2
    1d14:	1812      	adds	r2, r2, r0
    1d16:	2002      	movs	r0, #2
    1d18:	490c      	ldr	r1, [pc, #48]	; (1d4c <_ZN11AOInterrupt7StoppedEPS_PKN2QP4QEvtE+0x80>)
    1d1a:	608b      	str	r3, [r1, #8]
    1d1c:	7010      	strb	r0, [r2, #0]
    1d1e:	618b      	str	r3, [r1, #24]
    1d20:	2003      	movs	r0, #3
    1d22:	bd70      	pop	{r4, r5, r6, pc}
    1d24:	200a      	movs	r0, #10
    1d26:	888d      	ldrh	r5, [r1, #4]
    1d28:	f7fe fe2a 	bl	980 <_ZN2FW3EvtnwEj>
    1d2c:	233b      	movs	r3, #59	; 0x3b
    1d2e:	8003      	strh	r3, [r0, #0]
    1d30:	2300      	movs	r3, #0
    1d32:	8085      	strh	r5, [r0, #4]
    1d34:	7183      	strb	r3, [r0, #6]
    1d36:	8103      	strh	r3, [r0, #8]
    1d38:	f7ff fa6a 	bl	1210 <_ZN2QP2QF8publish_EPKNS_4QEvtE>
    1d3c:	4b04      	ldr	r3, [pc, #16]	; (1d50 <_ZN11AOInterrupt7StoppedEPS_PKN2QP4QEvtE+0x84>)
    1d3e:	2008      	movs	r0, #8
    1d40:	60a3      	str	r3, [r4, #8]
    1d42:	e7ee      	b.n	1d22 <_ZN11AOInterrupt7StoppedEPS_PKN2QP4QEvtE+0x56>
    1d44:	00001b79 	.word	0x00001b79
    1d48:	41004440 	.word	0x41004440
    1d4c:	41004400 	.word	0x41004400
    1d50:	00001c2d 	.word	0x00001c2d

00001d54 <_ZN11AOInterruptC1Ev>:
    1d54:	b510      	push	{r4, lr}
    1d56:	0004      	movs	r4, r0
    1d58:	4908      	ldr	r1, [pc, #32]	; (1d7c <_ZN11AOInterruptC1Ev+0x28>)
    1d5a:	f7ff fae9 	bl	1330 <_ZN2QP7QActiveC1EPFjPvPKNS_4QEvtEE>
    1d5e:	4b08      	ldr	r3, [pc, #32]	; (1d80 <_ZN11AOInterruptC1Ev+0x2c>)
    1d60:	220b      	movs	r2, #11
    1d62:	6023      	str	r3, [r4, #0]
    1d64:	0023      	movs	r3, r4
    1d66:	3354      	adds	r3, #84	; 0x54
    1d68:	701a      	strb	r2, [r3, #0]
    1d6a:	4b06      	ldr	r3, [pc, #24]	; (1d84 <_ZN11AOInterruptC1Ev+0x30>)
    1d6c:	3a07      	subs	r2, #7
    1d6e:	65a3      	str	r3, [r4, #88]	; 0x58
    1d70:	0023      	movs	r3, r4
    1d72:	3360      	adds	r3, #96	; 0x60
    1d74:	0020      	movs	r0, r4
    1d76:	701a      	strb	r2, [r3, #0]
    1d78:	bd10      	pop	{r4, pc}
    1d7a:	46c0      	nop			; (mov r8, r8)
    1d7c:	00001bfd 	.word	0x00001bfd
    1d80:	000030f4 	.word	0x000030f4
    1d84:	000032f0 	.word	0x000032f0

00001d88 <_ZL11eeprom_readhPhh>:
    1d88:	23fc      	movs	r3, #252	; 0xfc
    1d8a:	019b      	lsls	r3, r3, #6
    1d8c:	18c0      	adds	r0, r0, r3
    1d8e:	4b12      	ldr	r3, [pc, #72]	; (1dd8 <_ZL11eeprom_readhPhh+0x50>)
    1d90:	b570      	push	{r4, r5, r6, lr}
    1d92:	0844      	lsrs	r4, r0, #1
    1d94:	7d1d      	ldrb	r5, [r3, #20]
    1d96:	07ed      	lsls	r5, r5, #31
    1d98:	d5fc      	bpl.n	1d94 <_ZL11eeprom_readhPhh+0xc>
    1d9a:	2520      	movs	r5, #32
    1d9c:	35ff      	adds	r5, #255	; 0xff
    1d9e:	831d      	strh	r5, [r3, #24]
    1da0:	3d1f      	subs	r5, #31
    1da2:	3dff      	subs	r5, #255	; 0xff
    1da4:	2300      	movs	r3, #0
    1da6:	4228      	tst	r0, r5
    1da8:	d005      	beq.n	1db6 <_ZL11eeprom_readhPhh+0x2e>
    1daa:	43a8      	bics	r0, r5
    1dac:	8803      	ldrh	r3, [r0, #0]
    1dae:	1964      	adds	r4, r4, r5
    1db0:	0a1b      	lsrs	r3, r3, #8
    1db2:	700b      	strb	r3, [r1, #0]
    1db4:	002b      	movs	r3, r5
    1db6:	0064      	lsls	r4, r4, #1
    1db8:	1ae4      	subs	r4, r4, r3
    1dba:	1e56      	subs	r6, r2, #1
    1dbc:	4293      	cmp	r3, r2
    1dbe:	d20a      	bcs.n	1dd6 <_ZL11eeprom_readhPhh+0x4e>
    1dc0:	1918      	adds	r0, r3, r4
    1dc2:	8800      	ldrh	r0, [r0, #0]
    1dc4:	b280      	uxth	r0, r0
    1dc6:	54c8      	strb	r0, [r1, r3]
    1dc8:	42b3      	cmp	r3, r6
    1dca:	d202      	bcs.n	1dd2 <_ZL11eeprom_readhPhh+0x4a>
    1dcc:	18cd      	adds	r5, r1, r3
    1dce:	1200      	asrs	r0, r0, #8
    1dd0:	7068      	strb	r0, [r5, #1]
    1dd2:	3302      	adds	r3, #2
    1dd4:	e7f2      	b.n	1dbc <_ZL11eeprom_readhPhh+0x34>
    1dd6:	bd70      	pop	{r4, r5, r6, pc}
    1dd8:	41004000 	.word	0x41004000

00001ddc <_ZN8Delegate4RootEPS_PKN2QP4QEvtE>:
    1ddc:	880a      	ldrh	r2, [r1, #0]
    1dde:	2a00      	cmp	r2, #0
    1de0:	d009      	beq.n	1df6 <_ZN8Delegate4RootEPS_PKN2QP4QEvtE+0x1a>
    1de2:	2303      	movs	r3, #3
    1de4:	2a02      	cmp	r2, #2
    1de6:	d904      	bls.n	1df2 <_ZN8Delegate4RootEPS_PKN2QP4QEvtE+0x16>
    1de8:	429a      	cmp	r2, r3
    1dea:	d104      	bne.n	1df6 <_ZN8Delegate4RootEPS_PKN2QP4QEvtE+0x1a>
    1dec:	4b04      	ldr	r3, [pc, #16]	; (1e00 <_ZN8Delegate4RootEPS_PKN2QP4QEvtE+0x24>)
    1dee:	6083      	str	r3, [r0, #8]
    1df0:	2308      	movs	r3, #8
    1df2:	0018      	movs	r0, r3
    1df4:	4770      	bx	lr
    1df6:	4b03      	ldr	r3, [pc, #12]	; (1e04 <_ZN8Delegate4RootEPS_PKN2QP4QEvtE+0x28>)
    1df8:	6083      	str	r3, [r0, #8]
    1dfa:	2300      	movs	r3, #0
    1dfc:	e7f9      	b.n	1df2 <_ZN8Delegate4RootEPS_PKN2QP4QEvtE+0x16>
    1dfe:	46c0      	nop			; (mov r8, r8)
    1e00:	00001e39 	.word	0x00001e39
    1e04:	00000a91 	.word	0x00000a91

00001e08 <_ZN8Delegate18InitialPseudoStateEPS_PKN2QP4QEvtE>:
    1e08:	b510      	push	{r4, lr}
    1e0a:	0004      	movs	r4, r0
    1e0c:	2115      	movs	r1, #21
    1e0e:	f7ff fa61 	bl	12d4 <_ZNK2QP7QActive9subscribeEi>
    1e12:	0020      	movs	r0, r4
    1e14:	2117      	movs	r1, #23
    1e16:	f7ff fa5d 	bl	12d4 <_ZNK2QP7QActive9subscribeEi>
    1e1a:	0020      	movs	r0, r4
    1e1c:	210c      	movs	r1, #12
    1e1e:	f7ff fa59 	bl	12d4 <_ZNK2QP7QActive9subscribeEi>
    1e22:	0020      	movs	r0, r4
    1e24:	211a      	movs	r1, #26
    1e26:	f7ff fa55 	bl	12d4 <_ZNK2QP7QActive9subscribeEi>
    1e2a:	4b02      	ldr	r3, [pc, #8]	; (1e34 <_ZN8Delegate18InitialPseudoStateEPS_PKN2QP4QEvtE+0x2c>)
    1e2c:	2008      	movs	r0, #8
    1e2e:	60a3      	str	r3, [r4, #8]
    1e30:	bd10      	pop	{r4, pc}
    1e32:	46c0      	nop			; (mov r8, r8)
    1e34:	00001ddd 	.word	0x00001ddd

00001e38 <_ZN8Delegate7StoppedEPS_PKN2QP4QEvtE>:
    1e38:	880b      	ldrh	r3, [r1, #0]
    1e3a:	b570      	push	{r4, r5, r6, lr}
    1e3c:	0004      	movs	r4, r0
    1e3e:	2b15      	cmp	r3, #21
    1e40:	d01a      	beq.n	1e78 <_ZN8Delegate7StoppedEPS_PKN2QP4QEvtE+0x40>
    1e42:	d804      	bhi.n	1e4e <_ZN8Delegate7StoppedEPS_PKN2QP4QEvtE+0x16>
    1e44:	3b01      	subs	r3, #1
    1e46:	2b01      	cmp	r3, #1
    1e48:	d805      	bhi.n	1e56 <_ZN8Delegate7StoppedEPS_PKN2QP4QEvtE+0x1e>
    1e4a:	2003      	movs	r0, #3
    1e4c:	e027      	b.n	1e9e <_ZN8Delegate7StoppedEPS_PKN2QP4QEvtE+0x66>
    1e4e:	2b17      	cmp	r3, #23
    1e50:	d005      	beq.n	1e5e <_ZN8Delegate7StoppedEPS_PKN2QP4QEvtE+0x26>
    1e52:	2b1a      	cmp	r3, #26
    1e54:	d0f9      	beq.n	1e4a <_ZN8Delegate7StoppedEPS_PKN2QP4QEvtE+0x12>
    1e56:	4b12      	ldr	r3, [pc, #72]	; (1ea0 <_ZN8Delegate7StoppedEPS_PKN2QP4QEvtE+0x68>)
    1e58:	2000      	movs	r0, #0
    1e5a:	60a3      	str	r3, [r4, #8]
    1e5c:	e01f      	b.n	1e9e <_ZN8Delegate7StoppedEPS_PKN2QP4QEvtE+0x66>
    1e5e:	200a      	movs	r0, #10
    1e60:	888c      	ldrh	r4, [r1, #4]
    1e62:	f7fe fd8d 	bl	980 <_ZN2FW3EvtnwEj>
    1e66:	2318      	movs	r3, #24
    1e68:	8003      	strh	r3, [r0, #0]
    1e6a:	2300      	movs	r3, #0
    1e6c:	8084      	strh	r4, [r0, #4]
    1e6e:	7183      	strb	r3, [r0, #6]
    1e70:	8103      	strh	r3, [r0, #8]
    1e72:	f7ff f9cd 	bl	1210 <_ZN2QP2QF8publish_EPKNS_4QEvtE>
    1e76:	e7e8      	b.n	1e4a <_ZN8Delegate7StoppedEPS_PKN2QP4QEvtE+0x12>
    1e78:	2500      	movs	r5, #0
    1e7a:	4b0a      	ldr	r3, [pc, #40]	; (1ea4 <_ZN8Delegate7StoppedEPS_PKN2QP4QEvtE+0x6c>)
    1e7c:	200a      	movs	r0, #10
    1e7e:	601d      	str	r5, [r3, #0]
    1e80:	4b09      	ldr	r3, [pc, #36]	; (1ea8 <_ZN8Delegate7StoppedEPS_PKN2QP4QEvtE+0x70>)
    1e82:	601d      	str	r5, [r3, #0]
    1e84:	888e      	ldrh	r6, [r1, #4]
    1e86:	f7fe fd7b 	bl	980 <_ZN2FW3EvtnwEj>
    1e8a:	2316      	movs	r3, #22
    1e8c:	8086      	strh	r6, [r0, #4]
    1e8e:	8003      	strh	r3, [r0, #0]
    1e90:	7185      	strb	r5, [r0, #6]
    1e92:	8105      	strh	r5, [r0, #8]
    1e94:	f7ff f9bc 	bl	1210 <_ZN2QP2QF8publish_EPKNS_4QEvtE>
    1e98:	2008      	movs	r0, #8
    1e9a:	4b04      	ldr	r3, [pc, #16]	; (1eac <_ZN8Delegate7StoppedEPS_PKN2QP4QEvtE+0x74>)
    1e9c:	60a3      	str	r3, [r4, #8]
    1e9e:	bd70      	pop	{r4, r5, r6, pc}
    1ea0:	00001ddd 	.word	0x00001ddd
    1ea4:	200007f8 	.word	0x200007f8
    1ea8:	200007fc 	.word	0x200007fc
    1eac:	00001fa1 	.word	0x00001fa1

00001eb0 <_ZN8DelegateC1Ev>:
    1eb0:	b510      	push	{r4, lr}
    1eb2:	0004      	movs	r4, r0
    1eb4:	4906      	ldr	r1, [pc, #24]	; (1ed0 <_ZN8DelegateC1Ev+0x20>)
    1eb6:	f7ff fa3b 	bl	1330 <_ZN2QP7QActiveC1EPFjPvPKNS_4QEvtEE>
    1eba:	4b06      	ldr	r3, [pc, #24]	; (1ed4 <_ZN8DelegateC1Ev+0x24>)
    1ebc:	2202      	movs	r2, #2
    1ebe:	6023      	str	r3, [r4, #0]
    1ec0:	0023      	movs	r3, r4
    1ec2:	3374      	adds	r3, #116	; 0x74
    1ec4:	701a      	strb	r2, [r3, #0]
    1ec6:	4b04      	ldr	r3, [pc, #16]	; (1ed8 <_ZN8DelegateC1Ev+0x28>)
    1ec8:	0020      	movs	r0, r4
    1eca:	67a3      	str	r3, [r4, #120]	; 0x78
    1ecc:	bd10      	pop	{r4, pc}
    1ece:	46c0      	nop			; (mov r8, r8)
    1ed0:	00001e09 	.word	0x00001e09
    1ed4:	00003070 	.word	0x00003070
    1ed8:	00003311 	.word	0x00003311

00001edc <_ZN8Delegate11intCallbackEv>:
    1edc:	b510      	push	{r4, lr}
    1ede:	2006      	movs	r0, #6
    1ee0:	f7fe fd4e 	bl	980 <_ZN2FW3EvtnwEj>
    1ee4:	231a      	movs	r3, #26
    1ee6:	8003      	strh	r3, [r0, #0]
    1ee8:	2300      	movs	r3, #0
    1eea:	8083      	strh	r3, [r0, #4]
    1eec:	f7ff f990 	bl	1210 <_ZN2QP2QF8publish_EPKNS_4QEvtE>
    1ef0:	bd10      	pop	{r4, pc}

00001ef2 <_ZN8Delegate10break32BitEmPh>:
    1ef2:	0e0b      	lsrs	r3, r1, #24
    1ef4:	7013      	strb	r3, [r2, #0]
    1ef6:	0c0b      	lsrs	r3, r1, #16
    1ef8:	7053      	strb	r3, [r2, #1]
    1efa:	0a0b      	lsrs	r3, r1, #8
    1efc:	7093      	strb	r3, [r2, #2]
    1efe:	70d1      	strb	r1, [r2, #3]
    1f00:	4770      	bx	lr
	...

00001f04 <_ZN2FW4PipeIhE4ReadEPhmPb>:
    1f04:	b5f7      	push	{r0, r1, r2, r4, r5, r6, r7, lr}
    1f06:	0006      	movs	r6, r0
    1f08:	000f      	movs	r7, r1
    1f0a:	0015      	movs	r5, r2
    1f0c:	9300      	str	r3, [sp, #0]
    1f0e:	f3ef 8310 	mrs	r3, PRIMASK
    1f12:	9301      	str	r3, [sp, #4]
    1f14:	b672      	cpsid	i
    1f16:	2900      	cmp	r1, #0
    1f18:	d103      	bne.n	1f22 <_ZN2FW4PipeIhE4ReadEPhmPb+0x1e>
    1f1a:	2198      	movs	r1, #152	; 0x98
    1f1c:	4817      	ldr	r0, [pc, #92]	; (1f7c <_ZN2FW4PipeIhE4ReadEPhmPb+0x78>)
    1f1e:	f7fe fd2a 	bl	976 <Q_onAssert>
    1f22:	6933      	ldr	r3, [r6, #16]
    1f24:	68f2      	ldr	r2, [r6, #12]
    1f26:	68b1      	ldr	r1, [r6, #8]
    1f28:	1ad4      	subs	r4, r2, r3
    1f2a:	400c      	ands	r4, r1
    1f2c:	42ac      	cmp	r4, r5
    1f2e:	d900      	bls.n	1f32 <_ZN2FW4PipeIhE4ReadEPhmPb+0x2e>
    1f30:	002c      	movs	r4, r5
    1f32:	3101      	adds	r1, #1
    1f34:	191a      	adds	r2, r3, r4
    1f36:	428a      	cmp	r2, r1
    1f38:	d815      	bhi.n	1f66 <_ZN2FW4PipeIhE4ReadEPhmPb+0x62>
    1f3a:	0022      	movs	r2, r4
    1f3c:	0039      	movs	r1, r7
    1f3e:	0030      	movs	r0, r6
    1f40:	f7ff fdf8 	bl	1b34 <_ZN2FW4PipeIhE9ReadBlockEPhm>
    1f44:	9b00      	ldr	r3, [sp, #0]
    1f46:	2b00      	cmp	r3, #0
    1f48:	d008      	beq.n	1f5c <_ZN2FW4PipeIhE4ReadEPhmPb+0x58>
    1f4a:	2c00      	cmp	r4, #0
    1f4c:	d014      	beq.n	1f78 <_ZN2FW4PipeIhE4ReadEPhmPb+0x74>
    1f4e:	6932      	ldr	r2, [r6, #16]
    1f50:	68f3      	ldr	r3, [r6, #12]
    1f52:	429a      	cmp	r2, r3
    1f54:	d110      	bne.n	1f78 <_ZN2FW4PipeIhE4ReadEPhmPb+0x74>
    1f56:	2301      	movs	r3, #1
    1f58:	9a00      	ldr	r2, [sp, #0]
    1f5a:	7013      	strb	r3, [r2, #0]
    1f5c:	9b01      	ldr	r3, [sp, #4]
    1f5e:	f383 8810 	msr	PRIMASK, r3
    1f62:	0020      	movs	r0, r4
    1f64:	bdfe      	pop	{r1, r2, r3, r4, r5, r6, r7, pc}
    1f66:	1acd      	subs	r5, r1, r3
    1f68:	002a      	movs	r2, r5
    1f6a:	0039      	movs	r1, r7
    1f6c:	0030      	movs	r0, r6
    1f6e:	f7ff fde1 	bl	1b34 <_ZN2FW4PipeIhE9ReadBlockEPhm>
    1f72:	1b62      	subs	r2, r4, r5
    1f74:	1979      	adds	r1, r7, r5
    1f76:	e7e2      	b.n	1f3e <_ZN2FW4PipeIhE4ReadEPhmPb+0x3a>
    1f78:	2300      	movs	r3, #0
    1f7a:	e7ed      	b.n	1f58 <_ZN2FW4PipeIhE4ReadEPhmPb+0x54>
    1f7c:	000032e2 	.word	0x000032e2

00001f80 <_ZN8Delegate7discardEPN2FW4PipeIhEEh>:
    1f80:	b537      	push	{r0, r1, r2, r4, r5, lr}
    1f82:	000d      	movs	r5, r1
    1f84:	0014      	movs	r4, r2
    1f86:	2c00      	cmp	r4, #0
    1f88:	d009      	beq.n	1f9e <_ZN8Delegate7discardEPN2FW4PipeIhEEh+0x1e>
    1f8a:	4669      	mov	r1, sp
    1f8c:	2300      	movs	r3, #0
    1f8e:	2201      	movs	r2, #1
    1f90:	3107      	adds	r1, #7
    1f92:	0028      	movs	r0, r5
    1f94:	3c01      	subs	r4, #1
    1f96:	f7ff ffb5 	bl	1f04 <_ZN2FW4PipeIhE4ReadEPhmPb>
    1f9a:	b2e4      	uxtb	r4, r4
    1f9c:	e7f3      	b.n	1f86 <_ZN8Delegate7discardEPN2FW4PipeIhEEh+0x6>
    1f9e:	bd37      	pop	{r0, r1, r2, r4, r5, pc}

00001fa0 <_ZN8Delegate7StartedEPS_PKN2QP4QEvtE>:
    1fa0:	b5f0      	push	{r4, r5, r6, r7, lr}
    1fa2:	880b      	ldrh	r3, [r1, #0]
    1fa4:	b095      	sub	sp, #84	; 0x54
    1fa6:	af00      	add	r7, sp, #0
    1fa8:	6078      	str	r0, [r7, #4]
    1faa:	000c      	movs	r4, r1
    1fac:	60bb      	str	r3, [r7, #8]
    1fae:	2b0c      	cmp	r3, #12
    1fb0:	d020      	beq.n	1ff4 <_ZN8Delegate7StartedEPS_PKN2QP4QEvtE+0x54>
    1fb2:	d807      	bhi.n	1fc4 <_ZN8Delegate7StartedEPS_PKN2QP4QEvtE+0x24>
    1fb4:	3b01      	subs	r3, #1
    1fb6:	2b01      	cmp	r3, #1
    1fb8:	d952      	bls.n	2060 <_ZN8Delegate7StartedEPS_PKN2QP4QEvtE+0xc0>
    1fba:	4bc3      	ldr	r3, [pc, #780]	; (22c8 <_ZN8Delegate7StartedEPS_PKN2QP4QEvtE+0x328>)
    1fbc:	687a      	ldr	r2, [r7, #4]
    1fbe:	2500      	movs	r5, #0
    1fc0:	6093      	str	r3, [r2, #8]
    1fc2:	e0d8      	b.n	2176 <_ZN8Delegate7StartedEPS_PKN2QP4QEvtE+0x1d6>
    1fc4:	68bb      	ldr	r3, [r7, #8]
    1fc6:	2b17      	cmp	r3, #23
    1fc8:	d100      	bne.n	1fcc <_ZN8Delegate7StartedEPS_PKN2QP4QEvtE+0x2c>
    1fca:	e240      	b.n	244e <_ZN8Delegate7StartedEPS_PKN2QP4QEvtE+0x4ae>
    1fcc:	2b1a      	cmp	r3, #26
    1fce:	d1f4      	bne.n	1fba <_ZN8Delegate7StartedEPS_PKN2QP4QEvtE+0x1a>
    1fd0:	4bbe      	ldr	r3, [pc, #760]	; (22cc <_ZN8Delegate7StartedEPS_PKN2QP4QEvtE+0x32c>)
    1fd2:	681b      	ldr	r3, [r3, #0]
    1fd4:	2b00      	cmp	r3, #0
    1fd6:	d103      	bne.n	1fe0 <_ZN8Delegate7StartedEPS_PKN2QP4QEvtE+0x40>
    1fd8:	49bd      	ldr	r1, [pc, #756]	; (22d0 <_ZN8Delegate7StartedEPS_PKN2QP4QEvtE+0x330>)
    1fda:	48be      	ldr	r0, [pc, #760]	; (22d4 <_ZN8Delegate7StartedEPS_PKN2QP4QEvtE+0x334>)
    1fdc:	f7fe fccb 	bl	976 <Q_onAssert>
    1fe0:	200c      	movs	r0, #12
    1fe2:	f7fe fccd 	bl	980 <_ZN2FW3EvtnwEj>
    1fe6:	233e      	movs	r3, #62	; 0x3e
    1fe8:	8003      	strh	r3, [r0, #0]
    1fea:	2300      	movs	r3, #0
    1fec:	8083      	strh	r3, [r0, #4]
    1fee:	3301      	adds	r3, #1
    1ff0:	6083      	str	r3, [r0, #8]
    1ff2:	e033      	b.n	205c <_ZN8Delegate7StartedEPS_PKN2QP4QEvtE+0xbc>
    1ff4:	7a0b      	ldrb	r3, [r1, #8]
    1ff6:	79cd      	ldrb	r5, [r1, #7]
    1ff8:	60fb      	str	r3, [r7, #12]
    1ffa:	7a4e      	ldrb	r6, [r1, #9]
    1ffc:	2e00      	cmp	r6, #0
    1ffe:	d000      	beq.n	2002 <_ZN8Delegate7StartedEPS_PKN2QP4QEvtE+0x62>
    2000:	e0cc      	b.n	219c <_ZN8Delegate7StartedEPS_PKN2QP4QEvtE+0x1fc>
    2002:	2d01      	cmp	r5, #1
    2004:	d04e      	beq.n	20a4 <_ZN8Delegate7StartedEPS_PKN2QP4QEvtE+0x104>
    2006:	2d00      	cmp	r5, #0
    2008:	d00f      	beq.n	202a <_ZN8Delegate7StartedEPS_PKN2QP4QEvtE+0x8a>
    200a:	2d09      	cmp	r5, #9
    200c:	d100      	bne.n	2010 <_ZN8Delegate7StartedEPS_PKN2QP4QEvtE+0x70>
    200e:	e098      	b.n	2142 <_ZN8Delegate7StartedEPS_PKN2QP4QEvtE+0x1a2>
    2010:	2d0d      	cmp	r5, #13
    2012:	d100      	bne.n	2016 <_ZN8Delegate7StartedEPS_PKN2QP4QEvtE+0x76>
    2014:	e0b3      	b.n	217e <_ZN8Delegate7StartedEPS_PKN2QP4QEvtE+0x1de>
    2016:	68b8      	ldr	r0, [r7, #8]
    2018:	79a4      	ldrb	r4, [r4, #6]
    201a:	f7fe fcb1 	bl	980 <_ZN2FW3EvtnwEj>
    201e:	2319      	movs	r3, #25
    2020:	8086      	strh	r6, [r0, #4]
    2022:	8003      	strh	r3, [r0, #0]
    2024:	7184      	strb	r4, [r0, #6]
    2026:	6086      	str	r6, [r0, #8]
    2028:	e018      	b.n	205c <_ZN8Delegate7StartedEPS_PKN2QP4QEvtE+0xbc>
    202a:	68fb      	ldr	r3, [r7, #12]
    202c:	68c8      	ldr	r0, [r1, #12]
    202e:	2b02      	cmp	r3, #2
    2030:	d018      	beq.n	2064 <_ZN8Delegate7StartedEPS_PKN2QP4QEvtE+0xc4>
    2032:	2b03      	cmp	r3, #3
    2034:	d021      	beq.n	207a <_ZN8Delegate7StartedEPS_PKN2QP4QEvtE+0xda>
    2036:	2b01      	cmp	r3, #1
    2038:	d107      	bne.n	204a <_ZN8Delegate7StartedEPS_PKN2QP4QEvtE+0xaa>
    203a:	3354      	adds	r3, #84	; 0x54
    203c:	743b      	strb	r3, [r7, #16]
    203e:	002b      	movs	r3, r5
    2040:	68fa      	ldr	r2, [r7, #12]
    2042:	2110      	movs	r1, #16
    2044:	1879      	adds	r1, r7, r1
    2046:	f7ff fc8d 	bl	1964 <_ZN2FW4PipeIhE5WriteEPKhmPb>
    204a:	68b8      	ldr	r0, [r7, #8]
    204c:	79a4      	ldrb	r4, [r4, #6]
    204e:	f7fe fc97 	bl	980 <_ZN2FW3EvtnwEj>
    2052:	2319      	movs	r3, #25
    2054:	8085      	strh	r5, [r0, #4]
    2056:	8003      	strh	r3, [r0, #0]
    2058:	7184      	strb	r4, [r0, #6]
    205a:	6085      	str	r5, [r0, #8]
    205c:	f7ff f8d8 	bl	1210 <_ZN2QP2QF8publish_EPKNS_4QEvtE>
    2060:	2503      	movs	r5, #3
    2062:	e088      	b.n	2176 <_ZN8Delegate7StartedEPS_PKN2QP4QEvtE+0x1d6>
    2064:	230e      	movs	r3, #14
    2066:	743b      	strb	r3, [r7, #16]
    2068:	3322      	adds	r3, #34	; 0x22
    206a:	747b      	strb	r3, [r7, #17]
    206c:	3b0d      	subs	r3, #13
    206e:	74bb      	strb	r3, [r7, #18]
    2070:	3323      	adds	r3, #35	; 0x23
    2072:	74fb      	strb	r3, [r7, #19]
    2074:	2204      	movs	r2, #4
    2076:	002b      	movs	r3, r5
    2078:	e7e3      	b.n	2042 <_ZN8Delegate7StartedEPS_PKN2QP4QEvtE+0xa2>
    207a:	230a      	movs	r3, #10
    207c:	2110      	movs	r1, #16
    207e:	74bb      	strb	r3, [r7, #18]
    2080:	7b3b      	ldrb	r3, [r7, #12]
    2082:	2204      	movs	r2, #4
    2084:	74fb      	strb	r3, [r7, #19]
    2086:	1879      	adds	r1, r7, r1
    2088:	002b      	movs	r3, r5
    208a:	743d      	strb	r5, [r7, #16]
    208c:	747d      	strb	r5, [r7, #17]
    208e:	f7ff fc69 	bl	1964 <_ZN2FW4PipeIhE5WriteEPKhmPb>
    2092:	68b8      	ldr	r0, [r7, #8]
    2094:	79a6      	ldrb	r6, [r4, #6]
    2096:	f7fe fc73 	bl	980 <_ZN2FW3EvtnwEj>
    209a:	2319      	movs	r3, #25
    209c:	8085      	strh	r5, [r0, #4]
    209e:	8003      	strh	r3, [r0, #0]
    20a0:	7186      	strb	r6, [r0, #6]
    20a2:	e7da      	b.n	205a <_ZN8Delegate7StartedEPS_PKN2QP4QEvtE+0xba>
    20a4:	68cb      	ldr	r3, [r1, #12]
    20a6:	603b      	str	r3, [r7, #0]
    20a8:	68fb      	ldr	r3, [r7, #12]
    20aa:	2b04      	cmp	r3, #4
    20ac:	d020      	beq.n	20f0 <_ZN8Delegate7StartedEPS_PKN2QP4QEvtE+0x150>
    20ae:	2b0a      	cmp	r3, #10
    20b0:	d1b1      	bne.n	2016 <_ZN8Delegate7StartedEPS_PKN2QP4QEvtE+0x76>
    20b2:	4b86      	ldr	r3, [pc, #536]	; (22cc <_ZN8Delegate7StartedEPS_PKN2QP4QEvtE+0x32c>)
    20b4:	6878      	ldr	r0, [r7, #4]
    20b6:	6819      	ldr	r1, [r3, #0]
    20b8:	2310      	movs	r3, #16
    20ba:	18fa      	adds	r2, r7, r3
    20bc:	f7ff ff19 	bl	1ef2 <_ZN8Delegate10break32BitEmPh>
    20c0:	2110      	movs	r1, #16
    20c2:	0033      	movs	r3, r6
    20c4:	2204      	movs	r2, #4
    20c6:	1879      	adds	r1, r7, r1
    20c8:	6838      	ldr	r0, [r7, #0]
    20ca:	f7ff fc4b 	bl	1964 <_ZN2FW4PipeIhE5WriteEPKhmPb>
    20ce:	68b8      	ldr	r0, [r7, #8]
    20d0:	79a4      	ldrb	r4, [r4, #6]
    20d2:	f7fe fc55 	bl	980 <_ZN2FW3EvtnwEj>
    20d6:	2319      	movs	r3, #25
    20d8:	8086      	strh	r6, [r0, #4]
    20da:	8003      	strh	r3, [r0, #0]
    20dc:	7184      	strb	r4, [r0, #6]
    20de:	6086      	str	r6, [r0, #8]
    20e0:	f7ff f896 	bl	1210 <_ZN2QP2QF8publish_EPKNS_4QEvtE>
    20e4:	4b7c      	ldr	r3, [pc, #496]	; (22d8 <_ZN8Delegate7StartedEPS_PKN2QP4QEvtE+0x338>)
    20e6:	681b      	ldr	r3, [r3, #0]
    20e8:	2b00      	cmp	r3, #0
    20ea:	d0b9      	beq.n	2060 <_ZN8Delegate7StartedEPS_PKN2QP4QEvtE+0xc0>
    20ec:	4b77      	ldr	r3, [pc, #476]	; (22cc <_ZN8Delegate7StartedEPS_PKN2QP4QEvtE+0x32c>)
    20ee:	e020      	b.n	2132 <_ZN8Delegate7StartedEPS_PKN2QP4QEvtE+0x192>
    20f0:	4b7a      	ldr	r3, [pc, #488]	; (22dc <_ZN8Delegate7StartedEPS_PKN2QP4QEvtE+0x33c>)
    20f2:	6878      	ldr	r0, [r7, #4]
    20f4:	6a19      	ldr	r1, [r3, #32]
    20f6:	2310      	movs	r3, #16
    20f8:	18fa      	adds	r2, r7, r3
    20fa:	f7ff fefa 	bl	1ef2 <_ZN8Delegate10break32BitEmPh>
    20fe:	2110      	movs	r1, #16
    2100:	0033      	movs	r3, r6
    2102:	68fa      	ldr	r2, [r7, #12]
    2104:	1879      	adds	r1, r7, r1
    2106:	6838      	ldr	r0, [r7, #0]
    2108:	f7ff fc2c 	bl	1964 <_ZN2FW4PipeIhE5WriteEPKhmPb>
    210c:	68b8      	ldr	r0, [r7, #8]
    210e:	79a4      	ldrb	r4, [r4, #6]
    2110:	f7fe fc36 	bl	980 <_ZN2FW3EvtnwEj>
    2114:	2319      	movs	r3, #25
    2116:	8086      	strh	r6, [r0, #4]
    2118:	8003      	strh	r3, [r0, #0]
    211a:	7184      	strb	r4, [r0, #6]
    211c:	6086      	str	r6, [r0, #8]
    211e:	f7ff f877 	bl	1210 <_ZN2QP2QF8publish_EPKNS_4QEvtE>
    2122:	4b6d      	ldr	r3, [pc, #436]	; (22d8 <_ZN8Delegate7StartedEPS_PKN2QP4QEvtE+0x338>)
    2124:	681b      	ldr	r3, [r3, #0]
    2126:	2b00      	cmp	r3, #0
    2128:	d09a      	beq.n	2060 <_ZN8Delegate7StartedEPS_PKN2QP4QEvtE+0xc0>
    212a:	4b68      	ldr	r3, [pc, #416]	; (22cc <_ZN8Delegate7StartedEPS_PKN2QP4QEvtE+0x32c>)
    212c:	681a      	ldr	r2, [r3, #0]
    212e:	2a00      	cmp	r2, #0
    2130:	d096      	beq.n	2060 <_ZN8Delegate7StartedEPS_PKN2QP4QEvtE+0xc0>
    2132:	68b8      	ldr	r0, [r7, #8]
    2134:	601e      	str	r6, [r3, #0]
    2136:	f7fe fc23 	bl	980 <_ZN2FW3EvtnwEj>
    213a:	233f      	movs	r3, #63	; 0x3f
    213c:	8086      	strh	r6, [r0, #4]
    213e:	8003      	strh	r3, [r0, #0]
    2140:	e78b      	b.n	205a <_ZN8Delegate7StartedEPS_PKN2QP4QEvtE+0xba>
    2142:	68fb      	ldr	r3, [r7, #12]
    2144:	2503      	movs	r5, #3
    2146:	2b0a      	cmp	r3, #10
    2148:	d815      	bhi.n	2176 <_ZN8Delegate7StartedEPS_PKN2QP4QEvtE+0x1d6>
    214a:	2301      	movs	r3, #1
    214c:	68fa      	ldr	r2, [r7, #12]
    214e:	4093      	lsls	r3, r2
    2150:	4a63      	ldr	r2, [pc, #396]	; (22e0 <_ZN8Delegate7StartedEPS_PKN2QP4QEvtE+0x340>)
    2152:	4213      	tst	r3, r2
    2154:	d00f      	beq.n	2176 <_ZN8Delegate7StartedEPS_PKN2QP4QEvtE+0x1d6>
    2156:	798b      	ldrb	r3, [r1, #6]
    2158:	68b8      	ldr	r0, [r7, #8]
    215a:	607b      	str	r3, [r7, #4]
    215c:	68cc      	ldr	r4, [r1, #12]
    215e:	f7fe fc0f 	bl	980 <_ZN2FW3EvtnwEj>
    2162:	231f      	movs	r3, #31
    2164:	8003      	strh	r3, [r0, #0]
    2166:	793b      	ldrb	r3, [r7, #4]
    2168:	8086      	strh	r6, [r0, #4]
    216a:	7183      	strb	r3, [r0, #6]
    216c:	7b3b      	ldrb	r3, [r7, #12]
    216e:	6084      	str	r4, [r0, #8]
    2170:	71c3      	strb	r3, [r0, #7]
    2172:	f7ff f84d 	bl	1210 <_ZN2QP2QF8publish_EPKNS_4QEvtE>
    2176:	0028      	movs	r0, r5
    2178:	46bd      	mov	sp, r7
    217a:	b015      	add	sp, #84	; 0x54
    217c:	bdf0      	pop	{r4, r5, r6, r7, pc}
    217e:	2310      	movs	r3, #16
    2180:	68cd      	ldr	r5, [r1, #12]
    2182:	68f8      	ldr	r0, [r7, #12]
    2184:	18f9      	adds	r1, r7, r3
    2186:	2201      	movs	r2, #1
    2188:	f7ff fdfe 	bl	1d88 <_ZL11eeprom_readhPhh>
    218c:	2110      	movs	r1, #16
    218e:	0033      	movs	r3, r6
    2190:	2201      	movs	r2, #1
    2192:	1879      	adds	r1, r7, r1
    2194:	0028      	movs	r0, r5
    2196:	f7ff fbe5 	bl	1964 <_ZN2FW4PipeIhE5WriteEPKhmPb>
    219a:	e73c      	b.n	2016 <_ZN8Delegate7StartedEPS_PKN2QP4QEvtE+0x76>
    219c:	2d01      	cmp	r5, #1
    219e:	d05e      	beq.n	225e <_ZN8Delegate7StartedEPS_PKN2QP4QEvtE+0x2be>
    21a0:	2d00      	cmp	r5, #0
    21a2:	d051      	beq.n	2248 <_ZN8Delegate7StartedEPS_PKN2QP4QEvtE+0x2a8>
    21a4:	2d09      	cmp	r5, #9
    21a6:	d100      	bne.n	21aa <_ZN8Delegate7StartedEPS_PKN2QP4QEvtE+0x20a>
    21a8:	e10e      	b.n	23c8 <_ZN8Delegate7StartedEPS_PKN2QP4QEvtE+0x428>
    21aa:	2d0d      	cmp	r5, #13
    21ac:	d000      	beq.n	21b0 <_ZN8Delegate7StartedEPS_PKN2QP4QEvtE+0x210>
    21ae:	e757      	b.n	2060 <_ZN8Delegate7StartedEPS_PKN2QP4QEvtE+0xc0>
    21b0:	466d      	mov	r5, sp
    21b2:	1df3      	adds	r3, r6, #7
    21b4:	08db      	lsrs	r3, r3, #3
    21b6:	00db      	lsls	r3, r3, #3
    21b8:	1aeb      	subs	r3, r5, r3
    21ba:	469d      	mov	sp, r3
    21bc:	0032      	movs	r2, r6
    21be:	2300      	movs	r3, #0
    21c0:	4669      	mov	r1, sp
    21c2:	68e0      	ldr	r0, [r4, #12]
    21c4:	f7ff fe9e 	bl	1f04 <_ZN2FW4PipeIhE4ReadEPhmPb>
    21c8:	2310      	movs	r3, #16
    21ca:	2240      	movs	r2, #64	; 0x40
    21cc:	18f9      	adds	r1, r7, r3
    21ce:	2000      	movs	r0, #0
    21d0:	7a66      	ldrb	r6, [r4, #9]
    21d2:	f7ff fdd9 	bl	1d88 <_ZL11eeprom_readhPhh>
    21d6:	2210      	movs	r2, #16
    21d8:	68fb      	ldr	r3, [r7, #12]
    21da:	18ba      	adds	r2, r7, r2
    21dc:	18d0      	adds	r0, r2, r3
    21de:	4669      	mov	r1, sp
    21e0:	0032      	movs	r2, r6
    21e2:	f000 fed5 	bl	2f90 <memcpy>
    21e6:	4a3f      	ldr	r2, [pc, #252]	; (22e4 <_ZN8Delegate7StartedEPS_PKN2QP4QEvtE+0x344>)
    21e8:	0013      	movs	r3, r2
    21ea:	7d11      	ldrb	r1, [r2, #20]
    21ec:	07c9      	lsls	r1, r1, #31
    21ee:	d5fc      	bpl.n	21ea <_ZN8Delegate7StartedEPS_PKN2QP4QEvtE+0x24a>
    21f0:	2120      	movs	r1, #32
    21f2:	20fc      	movs	r0, #252	; 0xfc
    21f4:	31ff      	adds	r1, #255	; 0xff
    21f6:	0140      	lsls	r0, r0, #5
    21f8:	8311      	strh	r1, [r2, #24]
    21fa:	61d0      	str	r0, [r2, #28]
    21fc:	483a      	ldr	r0, [pc, #232]	; (22e8 <_ZN8Delegate7StartedEPS_PKN2QP4QEvtE+0x348>)
    21fe:	8010      	strh	r0, [r2, #0]
    2200:	7d1a      	ldrb	r2, [r3, #20]
    2202:	07d2      	lsls	r2, r2, #31
    2204:	d5fc      	bpl.n	2200 <_ZN8Delegate7StartedEPS_PKN2QP4QEvtE+0x260>
    2206:	4a39      	ldr	r2, [pc, #228]	; (22ec <_ZN8Delegate7StartedEPS_PKN2QP4QEvtE+0x34c>)
    2208:	801a      	strh	r2, [r3, #0]
    220a:	7d1a      	ldrb	r2, [r3, #20]
    220c:	07d2      	lsls	r2, r2, #31
    220e:	d5fc      	bpl.n	220a <_ZN8Delegate7StartedEPS_PKN2QP4QEvtE+0x26a>
    2210:	2200      	movs	r2, #0
    2212:	8319      	strh	r1, [r3, #24]
    2214:	2110      	movs	r1, #16
    2216:	1879      	adds	r1, r7, r1
    2218:	1889      	adds	r1, r1, r2
    221a:	7848      	ldrb	r0, [r1, #1]
    221c:	2110      	movs	r1, #16
    221e:	1879      	adds	r1, r7, r1
    2220:	5c89      	ldrb	r1, [r1, r2]
    2222:	0200      	lsls	r0, r0, #8
    2224:	4301      	orrs	r1, r0
    2226:	20fc      	movs	r0, #252	; 0xfc
    2228:	0180      	lsls	r0, r0, #6
    222a:	1810      	adds	r0, r2, r0
    222c:	3202      	adds	r2, #2
    222e:	8001      	strh	r1, [r0, #0]
    2230:	2a40      	cmp	r2, #64	; 0x40
    2232:	d1ef      	bne.n	2214 <_ZN8Delegate7StartedEPS_PKN2QP4QEvtE+0x274>
    2234:	7d1a      	ldrb	r2, [r3, #20]
    2236:	07d2      	lsls	r2, r2, #31
    2238:	d5fc      	bpl.n	2234 <_ZN8Delegate7StartedEPS_PKN2QP4QEvtE+0x294>
    223a:	22fc      	movs	r2, #252	; 0xfc
    223c:	0152      	lsls	r2, r2, #5
    223e:	61da      	str	r2, [r3, #28]
    2240:	4a2b      	ldr	r2, [pc, #172]	; (22f0 <_ZN8Delegate7StartedEPS_PKN2QP4QEvtE+0x350>)
    2242:	801a      	strh	r2, [r3, #0]
    2244:	46ad      	mov	sp, r5
    2246:	e70b      	b.n	2060 <_ZN8Delegate7StartedEPS_PKN2QP4QEvtE+0xc0>
    2248:	68fb      	ldr	r3, [r7, #12]
    224a:	2b7f      	cmp	r3, #127	; 0x7f
    224c:	d000      	beq.n	2250 <_ZN8Delegate7StartedEPS_PKN2QP4QEvtE+0x2b0>
    224e:	e707      	b.n	2060 <_ZN8Delegate7StartedEPS_PKN2QP4QEvtE+0xc0>
    2250:	2006      	movs	r0, #6
    2252:	f7fe fb95 	bl	980 <_ZN2FW3EvtnwEj>
    2256:	2306      	movs	r3, #6
    2258:	8085      	strh	r5, [r0, #4]
    225a:	8003      	strh	r3, [r0, #0]
    225c:	e6fe      	b.n	205c <_ZN8Delegate7StartedEPS_PKN2QP4QEvtE+0xbc>
    225e:	68f8      	ldr	r0, [r7, #12]
    2260:	68cd      	ldr	r5, [r1, #12]
    2262:	3802      	subs	r0, #2
    2264:	280a      	cmp	r0, #10
    2266:	d819      	bhi.n	229c <_ZN8Delegate7StartedEPS_PKN2QP4QEvtE+0x2fc>
    2268:	f000 fdc0 	bl	2dec <__gnu_thumb1_case_uqi>
    226c:	46181e06 	.word	0x46181e06
    2270:	78661856 	.word	0x78661856
    2274:	8c18      	.short	0x8c18
    2276:	9d          	.byte	0x9d
    2277:	00          	.byte	0x00
    2278:	2110      	movs	r1, #16
    227a:	2300      	movs	r3, #0
    227c:	2204      	movs	r2, #4
    227e:	1879      	adds	r1, r7, r1
    2280:	0028      	movs	r0, r5
    2282:	f7ff fe3f 	bl	1f04 <_ZN2FW4PipeIhE4ReadEPhmPb>
    2286:	693b      	ldr	r3, [r7, #16]
    2288:	3e04      	subs	r6, #4
    228a:	ba18      	rev	r0, r3
    228c:	4b19      	ldr	r3, [pc, #100]	; (22f4 <_ZN8Delegate7StartedEPS_PKN2QP4QEvtE+0x354>)
    228e:	b2f6      	uxtb	r6, r6
    2290:	4018      	ands	r0, r3
    2292:	4b12      	ldr	r3, [pc, #72]	; (22dc <_ZN8Delegate7StartedEPS_PKN2QP4QEvtE+0x33c>)
    2294:	6098      	str	r0, [r3, #8]
    2296:	2100      	movs	r1, #0
    2298:	f7fd ffb0 	bl	1fc <_Z13gpio_set_inenmh>
    229c:	0032      	movs	r2, r6
    229e:	0029      	movs	r1, r5
    22a0:	6878      	ldr	r0, [r7, #4]
    22a2:	f7ff fe6d 	bl	1f80 <_ZN8Delegate7discardEPN2FW4PipeIhEEh>
    22a6:	e6db      	b.n	2060 <_ZN8Delegate7StartedEPS_PKN2QP4QEvtE+0xc0>
    22a8:	2110      	movs	r1, #16
    22aa:	2300      	movs	r3, #0
    22ac:	2204      	movs	r2, #4
    22ae:	1879      	adds	r1, r7, r1
    22b0:	0028      	movs	r0, r5
    22b2:	f7ff fe27 	bl	1f04 <_ZN2FW4PipeIhE4ReadEPhmPb>
    22b6:	693b      	ldr	r3, [r7, #16]
    22b8:	3e04      	subs	r6, #4
    22ba:	ba18      	rev	r0, r3
    22bc:	4b0d      	ldr	r3, [pc, #52]	; (22f4 <_ZN8Delegate7StartedEPS_PKN2QP4QEvtE+0x354>)
    22be:	b2f6      	uxtb	r6, r6
    22c0:	4018      	ands	r0, r3
    22c2:	4b06      	ldr	r3, [pc, #24]	; (22dc <_ZN8Delegate7StartedEPS_PKN2QP4QEvtE+0x33c>)
    22c4:	6058      	str	r0, [r3, #4]
    22c6:	e7e6      	b.n	2296 <_ZN8Delegate7StartedEPS_PKN2QP4QEvtE+0x2f6>
    22c8:	00001ddd 	.word	0x00001ddd
    22cc:	200007fc 	.word	0x200007fc
    22d0:	0000026a 	.word	0x0000026a
    22d4:	000032fa 	.word	0x000032fa
    22d8:	200007f8 	.word	0x200007f8
    22dc:	41004400 	.word	0x41004400
    22e0:	0000079c 	.word	0x0000079c
    22e4:	41004000 	.word	0x41004000
    22e8:	ffffa502 	.word	0xffffa502
    22ec:	ffffa544 	.word	0xffffa544
    22f0:	ffffa504 	.word	0xffffa504
    22f4:	f43cffe3 	.word	0xf43cffe3
    22f8:	2110      	movs	r1, #16
    22fa:	2300      	movs	r3, #0
    22fc:	2204      	movs	r2, #4
    22fe:	1879      	adds	r1, r7, r1
    2300:	0028      	movs	r0, r5
    2302:	f7ff fdff 	bl	1f04 <_ZN2FW4PipeIhE4ReadEPhmPb>
    2306:	693b      	ldr	r3, [r7, #16]
    2308:	4a59      	ldr	r2, [pc, #356]	; (2470 <_ZN8Delegate7StartedEPS_PKN2QP4QEvtE+0x4d0>)
    230a:	ba1b      	rev	r3, r3
    230c:	4013      	ands	r3, r2
    230e:	4a59      	ldr	r2, [pc, #356]	; (2474 <_ZN8Delegate7StartedEPS_PKN2QP4QEvtE+0x4d4>)
    2310:	3e04      	subs	r6, #4
    2312:	b2f6      	uxtb	r6, r6
    2314:	6193      	str	r3, [r2, #24]
    2316:	e7c1      	b.n	229c <_ZN8Delegate7StartedEPS_PKN2QP4QEvtE+0x2fc>
    2318:	2110      	movs	r1, #16
    231a:	2300      	movs	r3, #0
    231c:	2204      	movs	r2, #4
    231e:	1879      	adds	r1, r7, r1
    2320:	0028      	movs	r0, r5
    2322:	f7ff fdef 	bl	1f04 <_ZN2FW4PipeIhE4ReadEPhmPb>
    2326:	693b      	ldr	r3, [r7, #16]
    2328:	4a51      	ldr	r2, [pc, #324]	; (2470 <_ZN8Delegate7StartedEPS_PKN2QP4QEvtE+0x4d0>)
    232a:	ba1b      	rev	r3, r3
    232c:	4013      	ands	r3, r2
    232e:	4a51      	ldr	r2, [pc, #324]	; (2474 <_ZN8Delegate7StartedEPS_PKN2QP4QEvtE+0x4d4>)
    2330:	3e04      	subs	r6, #4
    2332:	b2f6      	uxtb	r6, r6
    2334:	6153      	str	r3, [r2, #20]
    2336:	e7b1      	b.n	229c <_ZN8Delegate7StartedEPS_PKN2QP4QEvtE+0x2fc>
    2338:	2110      	movs	r1, #16
    233a:	2300      	movs	r3, #0
    233c:	2204      	movs	r2, #4
    233e:	1879      	adds	r1, r7, r1
    2340:	0028      	movs	r0, r5
    2342:	f7ff fddf 	bl	1f04 <_ZN2FW4PipeIhE4ReadEPhmPb>
    2346:	4a4c      	ldr	r2, [pc, #304]	; (2478 <_ZN8Delegate7StartedEPS_PKN2QP4QEvtE+0x4d8>)
    2348:	693b      	ldr	r3, [r7, #16]
    234a:	4849      	ldr	r0, [pc, #292]	; (2470 <_ZN8Delegate7StartedEPS_PKN2QP4QEvtE+0x4d0>)
    234c:	6811      	ldr	r1, [r2, #0]
    234e:	ba1b      	rev	r3, r3
    2350:	4003      	ands	r3, r0
    2352:	3e04      	subs	r6, #4
    2354:	430b      	orrs	r3, r1
    2356:	b2f6      	uxtb	r6, r6
    2358:	6013      	str	r3, [r2, #0]
    235a:	e79f      	b.n	229c <_ZN8Delegate7StartedEPS_PKN2QP4QEvtE+0x2fc>
    235c:	2110      	movs	r1, #16
    235e:	2300      	movs	r3, #0
    2360:	2204      	movs	r2, #4
    2362:	1879      	adds	r1, r7, r1
    2364:	0028      	movs	r0, r5
    2366:	f7ff fdcd 	bl	1f04 <_ZN2FW4PipeIhE4ReadEPhmPb>
    236a:	693b      	ldr	r3, [r7, #16]
    236c:	4942      	ldr	r1, [pc, #264]	; (2478 <_ZN8Delegate7StartedEPS_PKN2QP4QEvtE+0x4d8>)
    236e:	ba1a      	rev	r2, r3
    2370:	4b3f      	ldr	r3, [pc, #252]	; (2470 <_ZN8Delegate7StartedEPS_PKN2QP4QEvtE+0x4d0>)
    2372:	6808      	ldr	r0, [r1, #0]
    2374:	401a      	ands	r2, r3
    2376:	4253      	negs	r3, r2
    2378:	4153      	adcs	r3, r2
    237a:	3e04      	subs	r6, #4
    237c:	4003      	ands	r3, r0
    237e:	b2f6      	uxtb	r6, r6
    2380:	600b      	str	r3, [r1, #0]
    2382:	e78b      	b.n	229c <_ZN8Delegate7StartedEPS_PKN2QP4QEvtE+0x2fc>
    2384:	2110      	movs	r1, #16
    2386:	2300      	movs	r3, #0
    2388:	1879      	adds	r1, r7, r1
    238a:	2204      	movs	r2, #4
    238c:	0028      	movs	r0, r5
    238e:	f7ff fdb9 	bl	1f04 <_ZN2FW4PipeIhE4ReadEPhmPb>
    2392:	693b      	ldr	r3, [r7, #16]
    2394:	3e04      	subs	r6, #4
    2396:	ba18      	rev	r0, r3
    2398:	4b35      	ldr	r3, [pc, #212]	; (2470 <_ZN8Delegate7StartedEPS_PKN2QP4QEvtE+0x4d0>)
    239a:	2100      	movs	r1, #0
    239c:	4018      	ands	r0, r3
    239e:	b2f6      	uxtb	r6, r6
    23a0:	f7fd ff42 	bl	228 <_Z19gpio_pullenset_bulkmh>
    23a4:	e77a      	b.n	229c <_ZN8Delegate7StartedEPS_PKN2QP4QEvtE+0x2fc>
    23a6:	2110      	movs	r1, #16
    23a8:	2300      	movs	r3, #0
    23aa:	1879      	adds	r1, r7, r1
    23ac:	2204      	movs	r2, #4
    23ae:	0028      	movs	r0, r5
    23b0:	f7ff fda8 	bl	1f04 <_ZN2FW4PipeIhE4ReadEPhmPb>
    23b4:	693b      	ldr	r3, [r7, #16]
    23b6:	3e04      	subs	r6, #4
    23b8:	ba18      	rev	r0, r3
    23ba:	4b2d      	ldr	r3, [pc, #180]	; (2470 <_ZN8Delegate7StartedEPS_PKN2QP4QEvtE+0x4d0>)
    23bc:	2100      	movs	r1, #0
    23be:	4018      	ands	r0, r3
    23c0:	b2f6      	uxtb	r6, r6
    23c2:	f7fd ff47 	bl	254 <_Z19gpio_pullenclr_bulkmh>
    23c6:	e769      	b.n	229c <_ZN8Delegate7StartedEPS_PKN2QP4QEvtE+0x2fc>
    23c8:	68fb      	ldr	r3, [r7, #12]
    23ca:	2b02      	cmp	r3, #2
    23cc:	d200      	bcs.n	23d0 <_ZN8Delegate7StartedEPS_PKN2QP4QEvtE+0x430>
    23ce:	e647      	b.n	2060 <_ZN8Delegate7StartedEPS_PKN2QP4QEvtE+0xc0>
    23d0:	2b04      	cmp	r3, #4
    23d2:	d922      	bls.n	241a <_ZN8Delegate7StartedEPS_PKN2QP4QEvtE+0x47a>
    23d4:	2b05      	cmp	r3, #5
    23d6:	d000      	beq.n	23da <_ZN8Delegate7StartedEPS_PKN2QP4QEvtE+0x43a>
    23d8:	e642      	b.n	2060 <_ZN8Delegate7StartedEPS_PKN2QP4QEvtE+0xc0>
    23da:	68cc      	ldr	r4, [r1, #12]
    23dc:	2110      	movs	r1, #16
    23de:	2300      	movs	r3, #0
    23e0:	2204      	movs	r2, #4
    23e2:	1879      	adds	r1, r7, r1
    23e4:	0020      	movs	r0, r4
    23e6:	f7ff fd8d 	bl	1f04 <_ZN2FW4PipeIhE4ReadEPhmPb>
    23ea:	1f32      	subs	r2, r6, #4
    23ec:	0021      	movs	r1, r4
    23ee:	b2d2      	uxtb	r2, r2
    23f0:	6878      	ldr	r0, [r7, #4]
    23f2:	f7ff fdc5 	bl	1f80 <_ZN8Delegate7discardEPN2FW4PipeIhEEh>
    23f6:	7c3d      	ldrb	r5, [r7, #16]
    23f8:	7c7b      	ldrb	r3, [r7, #17]
    23fa:	7cbc      	ldrb	r4, [r7, #18]
    23fc:	022d      	lsls	r5, r5, #8
    23fe:	431d      	orrs	r5, r3
    2400:	7cfb      	ldrb	r3, [r7, #19]
    2402:	0224      	lsls	r4, r4, #8
    2404:	200a      	movs	r0, #10
    2406:	431c      	orrs	r4, r3
    2408:	f7fe faba 	bl	980 <_ZN2FW3EvtnwEj>
    240c:	2321      	movs	r3, #33	; 0x21
    240e:	8003      	strh	r3, [r0, #0]
    2410:	2300      	movs	r3, #0
    2412:	80c5      	strh	r5, [r0, #6]
    2414:	8083      	strh	r3, [r0, #4]
    2416:	8104      	strh	r4, [r0, #8]
    2418:	e620      	b.n	205c <_ZN8Delegate7StartedEPS_PKN2QP4QEvtE+0xbc>
    241a:	68cd      	ldr	r5, [r1, #12]
    241c:	2110      	movs	r1, #16
    241e:	2300      	movs	r3, #0
    2420:	2201      	movs	r2, #1
    2422:	1879      	adds	r1, r7, r1
    2424:	0028      	movs	r0, r5
    2426:	3e01      	subs	r6, #1
    2428:	f7ff fd6c 	bl	1f04 <_ZN2FW4PipeIhE4ReadEPhmPb>
    242c:	b2f2      	uxtb	r2, r6
    242e:	0029      	movs	r1, r5
    2430:	6878      	ldr	r0, [r7, #4]
    2432:	f7ff fda5 	bl	1f80 <_ZN8Delegate7discardEPN2FW4PipeIhEEh>
    2436:	2008      	movs	r0, #8
    2438:	f7fe faa2 	bl	980 <_ZN2FW3EvtnwEj>
    243c:	2220      	movs	r2, #32
    243e:	7c3b      	ldrb	r3, [r7, #16]
    2440:	8002      	strh	r2, [r0, #0]
    2442:	2200      	movs	r2, #0
    2444:	8082      	strh	r2, [r0, #4]
    2446:	7b3a      	ldrb	r2, [r7, #12]
    2448:	71c3      	strb	r3, [r0, #7]
    244a:	7182      	strb	r2, [r0, #6]
    244c:	e606      	b.n	205c <_ZN8Delegate7StartedEPS_PKN2QP4QEvtE+0xbc>
    244e:	200a      	movs	r0, #10
    2450:	888c      	ldrh	r4, [r1, #4]
    2452:	f7fe fa95 	bl	980 <_ZN2FW3EvtnwEj>
    2456:	2318      	movs	r3, #24
    2458:	8003      	strh	r3, [r0, #0]
    245a:	2300      	movs	r3, #0
    245c:	8084      	strh	r4, [r0, #4]
    245e:	7183      	strb	r3, [r0, #6]
    2460:	8103      	strh	r3, [r0, #8]
    2462:	f7fe fed5 	bl	1210 <_ZN2QP2QF8publish_EPKNS_4QEvtE>
    2466:	4b05      	ldr	r3, [pc, #20]	; (247c <_ZN8Delegate7StartedEPS_PKN2QP4QEvtE+0x4dc>)
    2468:	687a      	ldr	r2, [r7, #4]
    246a:	2508      	movs	r5, #8
    246c:	6093      	str	r3, [r2, #8]
    246e:	e682      	b.n	2176 <_ZN8Delegate7StartedEPS_PKN2QP4QEvtE+0x1d6>
    2470:	f43cffe3 	.word	0xf43cffe3
    2474:	41004400 	.word	0x41004400
    2478:	200007f8 	.word	0x200007f8
    247c:	00001e39 	.word	0x00001e39

00002480 <_ZN8I2CSlave4RootEPS_PKN2QP4QEvtE>:
    2480:	880b      	ldrh	r3, [r1, #0]
    2482:	2b03      	cmp	r3, #3
    2484:	d008      	beq.n	2498 <_ZN8I2CSlave4RootEPS_PKN2QP4QEvtE+0x18>
    2486:	d805      	bhi.n	2494 <_ZN8I2CSlave4RootEPS_PKN2QP4QEvtE+0x14>
    2488:	2b00      	cmp	r3, #0
    248a:	d109      	bne.n	24a0 <_ZN8I2CSlave4RootEPS_PKN2QP4QEvtE+0x20>
    248c:	4b05      	ldr	r3, [pc, #20]	; (24a4 <_ZN8I2CSlave4RootEPS_PKN2QP4QEvtE+0x24>)
    248e:	6083      	str	r3, [r0, #8]
    2490:	2000      	movs	r0, #0
    2492:	e004      	b.n	249e <_ZN8I2CSlave4RootEPS_PKN2QP4QEvtE+0x1e>
    2494:	2b0f      	cmp	r3, #15
    2496:	d1f9      	bne.n	248c <_ZN8I2CSlave4RootEPS_PKN2QP4QEvtE+0xc>
    2498:	4b03      	ldr	r3, [pc, #12]	; (24a8 <_ZN8I2CSlave4RootEPS_PKN2QP4QEvtE+0x28>)
    249a:	6083      	str	r3, [r0, #8]
    249c:	2008      	movs	r0, #8
    249e:	4770      	bx	lr
    24a0:	2003      	movs	r0, #3
    24a2:	e7fc      	b.n	249e <_ZN8I2CSlave4RootEPS_PKN2QP4QEvtE+0x1e>
    24a4:	00000a91 	.word	0x00000a91
    24a8:	000025ed 	.word	0x000025ed

000024ac <_ZN8I2CSlave18InitialPseudoStateEPS_PKN2QP4QEvtE>:
    24ac:	b510      	push	{r4, lr}
    24ae:	0004      	movs	r4, r0
    24b0:	210d      	movs	r1, #13
    24b2:	f7fe ff0f 	bl	12d4 <_ZNK2QP7QActive9subscribeEi>
    24b6:	0020      	movs	r0, r4
    24b8:	210f      	movs	r1, #15
    24ba:	f7fe ff0b 	bl	12d4 <_ZNK2QP7QActive9subscribeEi>
    24be:	0020      	movs	r0, r4
    24c0:	2111      	movs	r1, #17
    24c2:	f7fe ff07 	bl	12d4 <_ZNK2QP7QActive9subscribeEi>
    24c6:	0020      	movs	r0, r4
    24c8:	2112      	movs	r1, #18
    24ca:	f7fe ff03 	bl	12d4 <_ZNK2QP7QActive9subscribeEi>
    24ce:	0020      	movs	r0, r4
    24d0:	2113      	movs	r1, #19
    24d2:	f7fe feff 	bl	12d4 <_ZNK2QP7QActive9subscribeEi>
    24d6:	0020      	movs	r0, r4
    24d8:	2114      	movs	r1, #20
    24da:	f7fe fefb 	bl	12d4 <_ZNK2QP7QActive9subscribeEi>
    24de:	0020      	movs	r0, r4
    24e0:	2119      	movs	r1, #25
    24e2:	f7fe fef7 	bl	12d4 <_ZNK2QP7QActive9subscribeEi>
    24e6:	4b02      	ldr	r3, [pc, #8]	; (24f0 <_ZN8I2CSlave18InitialPseudoStateEPS_PKN2QP4QEvtE+0x44>)
    24e8:	2008      	movs	r0, #8
    24ea:	60a3      	str	r3, [r4, #8]
    24ec:	bd10      	pop	{r4, pc}
    24ee:	46c0      	nop			; (mov r8, r8)
    24f0:	00002481 	.word	0x00002481

000024f4 <_ZN8I2CSlave4BusyEPS_PKN2QP4QEvtE>:
    24f4:	b510      	push	{r4, lr}
    24f6:	880c      	ldrh	r4, [r1, #0]
    24f8:	2c02      	cmp	r4, #2
    24fa:	d027      	beq.n	254c <_ZN8I2CSlave4BusyEPS_PKN2QP4QEvtE+0x58>
    24fc:	d805      	bhi.n	250a <_ZN8I2CSlave4BusyEPS_PKN2QP4QEvtE+0x16>
    24fe:	2c01      	cmp	r4, #1
    2500:	d017      	beq.n	2532 <_ZN8I2CSlave4BusyEPS_PKN2QP4QEvtE+0x3e>
    2502:	4b16      	ldr	r3, [pc, #88]	; (255c <_ZN8I2CSlave4BusyEPS_PKN2QP4QEvtE+0x68>)
    2504:	6083      	str	r3, [r0, #8]
    2506:	2300      	movs	r3, #0
    2508:	e011      	b.n	252e <_ZN8I2CSlave4BusyEPS_PKN2QP4QEvtE+0x3a>
    250a:	2c14      	cmp	r4, #20
    250c:	d00c      	beq.n	2528 <_ZN8I2CSlave4BusyEPS_PKN2QP4QEvtE+0x34>
    250e:	2c19      	cmp	r4, #25
    2510:	d1f7      	bne.n	2502 <_ZN8I2CSlave4BusyEPS_PKN2QP4QEvtE+0xe>
    2512:	0002      	movs	r2, r0
    2514:	3274      	adds	r2, #116	; 0x74
    2516:	7814      	ldrb	r4, [r2, #0]
    2518:	798a      	ldrb	r2, [r1, #6]
    251a:	4294      	cmp	r4, r2
    251c:	d107      	bne.n	252e <_ZN8I2CSlave4BusyEPS_PKN2QP4QEvtE+0x3a>
    251e:	688b      	ldr	r3, [r1, #8]
    2520:	2b00      	cmp	r3, #0
    2522:	d001      	beq.n	2528 <_ZN8I2CSlave4BusyEPS_PKN2QP4QEvtE+0x34>
    2524:	4a0e      	ldr	r2, [pc, #56]	; (2560 <_ZN8I2CSlave4BusyEPS_PKN2QP4QEvtE+0x6c>)
    2526:	6013      	str	r3, [r2, #0]
    2528:	4b0e      	ldr	r3, [pc, #56]	; (2564 <_ZN8I2CSlave4BusyEPS_PKN2QP4QEvtE+0x70>)
    252a:	6083      	str	r3, [r0, #8]
    252c:	2308      	movs	r3, #8
    252e:	0018      	movs	r0, r3
    2530:	bd10      	pop	{r4, pc}
    2532:	2264      	movs	r2, #100	; 0x64
    2534:	307c      	adds	r0, #124	; 0x7c
    2536:	0011      	movs	r1, r2
    2538:	f7fe ff9e 	bl	1478 <_ZN2QP8QTimeEvt4armXEtt>
    253c:	4b0a      	ldr	r3, [pc, #40]	; (2568 <_ZN8I2CSlave4BusyEPS_PKN2QP4QEvtE+0x74>)
    253e:	701c      	strb	r4, [r3, #0]
    2540:	4b0a      	ldr	r3, [pc, #40]	; (256c <_ZN8I2CSlave4BusyEPS_PKN2QP4QEvtE+0x78>)
    2542:	681a      	ldr	r2, [r3, #0]
    2544:	4b06      	ldr	r3, [pc, #24]	; (2560 <_ZN8I2CSlave4BusyEPS_PKN2QP4QEvtE+0x6c>)
    2546:	601a      	str	r2, [r3, #0]
    2548:	2303      	movs	r3, #3
    254a:	e7f0      	b.n	252e <_ZN8I2CSlave4BusyEPS_PKN2QP4QEvtE+0x3a>
    254c:	2280      	movs	r2, #128	; 0x80
    254e:	4b08      	ldr	r3, [pc, #32]	; (2570 <_ZN8I2CSlave4BusyEPS_PKN2QP4QEvtE+0x7c>)
    2550:	0512      	lsls	r2, r2, #20
    2552:	615a      	str	r2, [r3, #20]
    2554:	307c      	adds	r0, #124	; 0x7c
    2556:	f7fe ffc3 	bl	14e0 <_ZN2QP8QTimeEvt6disarmEv>
    255a:	e7f5      	b.n	2548 <_ZN8I2CSlave4BusyEPS_PKN2QP4QEvtE+0x54>
    255c:	00002735 	.word	0x00002735
    2560:	20000808 	.word	0x20000808
    2564:	000027b9 	.word	0x000027b9
    2568:	2000080f 	.word	0x2000080f
    256c:	20000800 	.word	0x20000800
    2570:	41004400 	.word	0x41004400

00002574 <_ZN8I2CSlaveC1EP6Sercom>:
    2574:	b570      	push	{r4, r5, r6, lr}
    2576:	0004      	movs	r4, r0
    2578:	000d      	movs	r5, r1
    257a:	490b      	ldr	r1, [pc, #44]	; (25a8 <_ZN8I2CSlaveC1EP6Sercom+0x34>)
    257c:	f7fe fed8 	bl	1330 <_ZN2QP7QActiveC1EPFjPvPKNS_4QEvtEE>
    2580:	4b0a      	ldr	r3, [pc, #40]	; (25ac <_ZN8I2CSlaveC1EP6Sercom+0x38>)
    2582:	2203      	movs	r2, #3
    2584:	6023      	str	r3, [r4, #0]
    2586:	0023      	movs	r3, r4
    2588:	0020      	movs	r0, r4
    258a:	3374      	adds	r3, #116	; 0x74
    258c:	701a      	strb	r2, [r3, #0]
    258e:	4b08      	ldr	r3, [pc, #32]	; (25b0 <_ZN8I2CSlaveC1EP6Sercom+0x3c>)
    2590:	3211      	adds	r2, #17
    2592:	67a3      	str	r3, [r4, #120]	; 0x78
    2594:	0021      	movs	r1, r4
    2596:	2300      	movs	r3, #0
    2598:	307c      	adds	r0, #124	; 0x7c
    259a:	f7fe ff49 	bl	1430 <_ZN2QP8QTimeEvtC1EPNS_7QActiveEij>
    259e:	0023      	movs	r3, r4
    25a0:	338c      	adds	r3, #140	; 0x8c
    25a2:	601d      	str	r5, [r3, #0]
    25a4:	0020      	movs	r0, r4
    25a6:	bd70      	pop	{r4, r5, r6, pc}
    25a8:	000024ad 	.word	0x000024ad
    25ac:	0000309c 	.word	0x0000309c
    25b0:	0000331a 	.word	0x0000331a

000025b4 <_ZN8I2CSlave15ReceiveCallbackEhhh>:
    25b4:	b570      	push	{r4, r5, r6, lr}
    25b6:	0006      	movs	r6, r0
    25b8:	200a      	movs	r0, #10
    25ba:	000d      	movs	r5, r1
    25bc:	0014      	movs	r4, r2
    25be:	f7fe f9df 	bl	980 <_ZN2FW3EvtnwEj>
    25c2:	2312      	movs	r3, #18
    25c4:	8003      	strh	r3, [r0, #0]
    25c6:	2300      	movs	r3, #0
    25c8:	7186      	strb	r6, [r0, #6]
    25ca:	71c5      	strb	r5, [r0, #7]
    25cc:	8083      	strh	r3, [r0, #4]
    25ce:	7204      	strb	r4, [r0, #8]
    25d0:	f7fe fe1e 	bl	1210 <_ZN2QP2QF8publish_EPKNS_4QEvtE>
    25d4:	bd70      	pop	{r4, r5, r6, pc}

000025d6 <_ZN2FW4PipeIhE5ResetEv>:
    25d6:	f3ef 8310 	mrs	r3, PRIMASK
    25da:	b672      	cpsid	i
    25dc:	2200      	movs	r2, #0
    25de:	60c2      	str	r2, [r0, #12]
    25e0:	6102      	str	r2, [r0, #16]
    25e2:	7502      	strb	r2, [r0, #20]
    25e4:	f383 8810 	msr	PRIMASK, r3
    25e8:	4770      	bx	lr
	...

000025ec <_ZN8I2CSlave7StoppedEPS_PKN2QP4QEvtE>:
    25ec:	880b      	ldrh	r3, [r1, #0]
    25ee:	b5f7      	push	{r0, r1, r2, r4, r5, r6, r7, lr}
    25f0:	0006      	movs	r6, r0
    25f2:	000d      	movs	r5, r1
    25f4:	2b0d      	cmp	r3, #13
    25f6:	d124      	bne.n	2642 <_ZN8I2CSlave7StoppedEPS_PKN2QP4QEvtE+0x56>
    25f8:	4b41      	ldr	r3, [pc, #260]	; (2700 <_ZN8I2CSlave7StoppedEPS_PKN2QP4QEvtE+0x114>)
    25fa:	7d1a      	ldrb	r2, [r3, #20]
    25fc:	07d2      	lsls	r2, r2, #31
    25fe:	d5fc      	bpl.n	25fa <_ZN8I2CSlave7StoppedEPS_PKN2QP4QEvtE+0xe>
    2600:	2220      	movs	r2, #32
    2602:	32ff      	adds	r2, #255	; 0xff
    2604:	831a      	strh	r2, [r3, #24]
    2606:	4b3f      	ldr	r3, [pc, #252]	; (2704 <_ZN8I2CSlave7StoppedEPS_PKN2QP4QEvtE+0x118>)
    2608:	2149      	movs	r1, #73	; 0x49
    260a:	881b      	ldrh	r3, [r3, #0]
    260c:	b29b      	uxth	r3, r3
    260e:	0a1a      	lsrs	r2, r3, #8
    2610:	2a7f      	cmp	r2, #127	; 0x7f
    2612:	d800      	bhi.n	2616 <_ZN8I2CSlave7StoppedEPS_PKN2QP4QEvtE+0x2a>
    2614:	1219      	asrs	r1, r3, #8
    2616:	24c0      	movs	r4, #192	; 0xc0
    2618:	4f3b      	ldr	r7, [pc, #236]	; (2708 <_ZN8I2CSlave7StoppedEPS_PKN2QP4QEvtE+0x11c>)
    261a:	02a4      	lsls	r4, r4, #10
    261c:	b2cb      	uxtb	r3, r1
    261e:	9301      	str	r3, [sp, #4]
    2620:	0020      	movs	r0, r4
    2622:	607c      	str	r4, [r7, #4]
    2624:	2100      	movs	r1, #0
    2626:	f7fd fde9 	bl	1fc <_Z13gpio_set_inenmh>
    262a:	0020      	movs	r0, r4
    262c:	2100      	movs	r1, #0
    262e:	f7fd fdfb 	bl	228 <_Z19gpio_pullenset_bulkmh>
    2632:	61bc      	str	r4, [r7, #24]
    2634:	4c35      	ldr	r4, [pc, #212]	; (270c <_ZN8I2CSlave7StoppedEPS_PKN2QP4QEvtE+0x120>)
    2636:	9700      	str	r7, [sp, #0]
    2638:	3c01      	subs	r4, #1
    263a:	2c00      	cmp	r4, #0
    263c:	d01a      	beq.n	2674 <_ZN8I2CSlave7StoppedEPS_PKN2QP4QEvtE+0x88>
    263e:	46c0      	nop			; (mov r8, r8)
    2640:	e7fa      	b.n	2638 <_ZN8I2CSlave7StoppedEPS_PKN2QP4QEvtE+0x4c>
    2642:	2b0d      	cmp	r3, #13
    2644:	d806      	bhi.n	2654 <_ZN8I2CSlave7StoppedEPS_PKN2QP4QEvtE+0x68>
    2646:	3b01      	subs	r3, #1
    2648:	2b01      	cmp	r3, #1
    264a:	d911      	bls.n	2670 <_ZN8I2CSlave7StoppedEPS_PKN2QP4QEvtE+0x84>
    264c:	4b30      	ldr	r3, [pc, #192]	; (2710 <_ZN8I2CSlave7StoppedEPS_PKN2QP4QEvtE+0x124>)
    264e:	2000      	movs	r0, #0
    2650:	60b3      	str	r3, [r6, #8]
    2652:	e054      	b.n	26fe <_ZN8I2CSlave7StoppedEPS_PKN2QP4QEvtE+0x112>
    2654:	2b0f      	cmp	r3, #15
    2656:	d1f9      	bne.n	264c <_ZN8I2CSlave7StoppedEPS_PKN2QP4QEvtE+0x60>
    2658:	200a      	movs	r0, #10
    265a:	888c      	ldrh	r4, [r1, #4]
    265c:	f7fe f990 	bl	980 <_ZN2FW3EvtnwEj>
    2660:	2310      	movs	r3, #16
    2662:	8003      	strh	r3, [r0, #0]
    2664:	2300      	movs	r3, #0
    2666:	8084      	strh	r4, [r0, #4]
    2668:	7183      	strb	r3, [r0, #6]
    266a:	8103      	strh	r3, [r0, #8]
    266c:	f7fe fdd0 	bl	1210 <_ZN2QP2QF8publish_EPKNS_4QEvtE>
    2670:	2003      	movs	r0, #3
    2672:	e044      	b.n	26fe <_ZN8I2CSlave7StoppedEPS_PKN2QP4QEvtE+0x112>
    2674:	2103      	movs	r1, #3
    2676:	0037      	movs	r7, r6
    2678:	9b00      	ldr	r3, [sp, #0]
    267a:	378c      	adds	r7, #140	; 0x8c
    267c:	6a1b      	ldr	r3, [r3, #32]
    267e:	6838      	ldr	r0, [r7, #0]
    2680:	0c1b      	lsrs	r3, r3, #16
    2682:	4399      	bics	r1, r3
    2684:	9b01      	ldr	r3, [sp, #4]
    2686:	1859      	adds	r1, r3, r1
    2688:	b2c9      	uxtb	r1, r1
    268a:	f7fd fe7a 	bl	382 <_Z13initSlaveWIREP6Sercomh>
    268e:	6838      	ldr	r0, [r7, #0]
    2690:	f7fd fe65 	bl	35e <_Z10enableWIREP6Sercom>
    2694:	2180      	movs	r1, #128	; 0x80
    2696:	23c0      	movs	r3, #192	; 0xc0
    2698:	4a1e      	ldr	r2, [pc, #120]	; (2714 <_ZN8I2CSlave7StoppedEPS_PKN2QP4QEvtE+0x128>)
    269a:	00c9      	lsls	r1, r1, #3
    269c:	005b      	lsls	r3, r3, #1
    269e:	50d1      	str	r1, [r2, r3]
    26a0:	4b1d      	ldr	r3, [pc, #116]	; (2718 <_ZN8I2CSlave7StoppedEPS_PKN2QP4QEvtE+0x12c>)
    26a2:	2102      	movs	r1, #2
    26a4:	2016      	movs	r0, #22
    26a6:	701c      	strb	r4, [r3, #0]
    26a8:	f7fd fd8c 	bl	1c4 <_Z13pinPeripheralhm>
    26ac:	2102      	movs	r1, #2
    26ae:	2017      	movs	r0, #23
    26b0:	f7fd fd88 	bl	1c4 <_Z13pinPeripheralhm>
    26b4:	68aa      	ldr	r2, [r5, #8]
    26b6:	4b19      	ldr	r3, [pc, #100]	; (271c <_ZN8I2CSlave7StoppedEPS_PKN2QP4QEvtE+0x130>)
    26b8:	68ef      	ldr	r7, [r5, #12]
    26ba:	601a      	str	r2, [r3, #0]
    26bc:	4b18      	ldr	r3, [pc, #96]	; (2720 <_ZN8I2CSlave7StoppedEPS_PKN2QP4QEvtE+0x134>)
    26be:	0010      	movs	r0, r2
    26c0:	601f      	str	r7, [r3, #0]
    26c2:	4b18      	ldr	r3, [pc, #96]	; (2724 <_ZN8I2CSlave7StoppedEPS_PKN2QP4QEvtE+0x138>)
    26c4:	601f      	str	r7, [r3, #0]
    26c6:	4b18      	ldr	r3, [pc, #96]	; (2728 <_ZN8I2CSlave7StoppedEPS_PKN2QP4QEvtE+0x13c>)
    26c8:	701c      	strb	r4, [r3, #0]
    26ca:	f7ff ff84 	bl	25d6 <_ZN2FW4PipeIhE5ResetEv>
    26ce:	0038      	movs	r0, r7
    26d0:	f7ff ff81 	bl	25d6 <_ZN2FW4PipeIhE5ResetEv>
    26d4:	2380      	movs	r3, #128	; 0x80
    26d6:	9a00      	ldr	r2, [sp, #0]
    26d8:	051b      	lsls	r3, r3, #20
    26da:	6093      	str	r3, [r2, #8]
    26dc:	2202      	movs	r2, #2
    26de:	4b13      	ldr	r3, [pc, #76]	; (272c <_ZN8I2CSlave7StoppedEPS_PKN2QP4QEvtE+0x140>)
    26e0:	200a      	movs	r0, #10
    26e2:	701a      	strb	r2, [r3, #0]
    26e4:	88ad      	ldrh	r5, [r5, #4]
    26e6:	f7fe f94b 	bl	980 <_ZN2FW3EvtnwEj>
    26ea:	230e      	movs	r3, #14
    26ec:	8085      	strh	r5, [r0, #4]
    26ee:	8003      	strh	r3, [r0, #0]
    26f0:	7184      	strb	r4, [r0, #6]
    26f2:	8104      	strh	r4, [r0, #8]
    26f4:	f7fe fd8c 	bl	1210 <_ZN2QP2QF8publish_EPKNS_4QEvtE>
    26f8:	2008      	movs	r0, #8
    26fa:	4b0d      	ldr	r3, [pc, #52]	; (2730 <_ZN8I2CSlave7StoppedEPS_PKN2QP4QEvtE+0x144>)
    26fc:	60b3      	str	r3, [r6, #8]
    26fe:	bdfe      	pop	{r1, r2, r3, r4, r5, r6, r7, pc}
    2700:	41004000 	.word	0x41004000
    2704:	00003f3e 	.word	0x00003f3e
    2708:	41004400 	.word	0x41004400
    270c:	0000c351 	.word	0x0000c351
    2710:	00002481 	.word	0x00002481
    2714:	e000e100 	.word	0xe000e100
    2718:	2000080f 	.word	0x2000080f
    271c:	20000804 	.word	0x20000804
    2720:	20000800 	.word	0x20000800
    2724:	20000808 	.word	0x20000808
    2728:	2000080c 	.word	0x2000080c
    272c:	4100445b 	.word	0x4100445b
    2730:	00002735 	.word	0x00002735

00002734 <_ZN8I2CSlave7StartedEPS_PKN2QP4QEvtE>:
    2734:	880b      	ldrh	r3, [r1, #0]
    2736:	b570      	push	{r4, r5, r6, lr}
    2738:	0004      	movs	r4, r0
    273a:	2b03      	cmp	r3, #3
    273c:	d019      	beq.n	2772 <_ZN8I2CSlave7StartedEPS_PKN2QP4QEvtE+0x3e>
    273e:	d808      	bhi.n	2752 <_ZN8I2CSlave7StartedEPS_PKN2QP4QEvtE+0x1e>
    2740:	2503      	movs	r5, #3
    2742:	2b01      	cmp	r3, #1
    2744:	d01d      	beq.n	2782 <_ZN8I2CSlave7StartedEPS_PKN2QP4QEvtE+0x4e>
    2746:	2b02      	cmp	r3, #2
    2748:	d017      	beq.n	277a <_ZN8I2CSlave7StartedEPS_PKN2QP4QEvtE+0x46>
    274a:	4b17      	ldr	r3, [pc, #92]	; (27a8 <_ZN8I2CSlave7StartedEPS_PKN2QP4QEvtE+0x74>)
    274c:	2500      	movs	r5, #0
    274e:	60a3      	str	r3, [r4, #8]
    2750:	e017      	b.n	2782 <_ZN8I2CSlave7StartedEPS_PKN2QP4QEvtE+0x4e>
    2752:	2b0f      	cmp	r3, #15
    2754:	d017      	beq.n	2786 <_ZN8I2CSlave7StartedEPS_PKN2QP4QEvtE+0x52>
    2756:	2b19      	cmp	r3, #25
    2758:	d1f7      	bne.n	274a <_ZN8I2CSlave7StartedEPS_PKN2QP4QEvtE+0x16>
    275a:	3474      	adds	r4, #116	; 0x74
    275c:	7822      	ldrb	r2, [r4, #0]
    275e:	798b      	ldrb	r3, [r1, #6]
    2760:	429a      	cmp	r2, r3
    2762:	d10e      	bne.n	2782 <_ZN8I2CSlave7StartedEPS_PKN2QP4QEvtE+0x4e>
    2764:	6888      	ldr	r0, [r1, #8]
    2766:	2800      	cmp	r0, #0
    2768:	d01b      	beq.n	27a2 <_ZN8I2CSlave7StartedEPS_PKN2QP4QEvtE+0x6e>
    276a:	f7ff ff34 	bl	25d6 <_ZN2FW4PipeIhE5ResetEv>
    276e:	2503      	movs	r5, #3
    2770:	e007      	b.n	2782 <_ZN8I2CSlave7StartedEPS_PKN2QP4QEvtE+0x4e>
    2772:	4b0e      	ldr	r3, [pc, #56]	; (27ac <_ZN8I2CSlave7StartedEPS_PKN2QP4QEvtE+0x78>)
    2774:	60a3      	str	r3, [r4, #8]
    2776:	2508      	movs	r5, #8
    2778:	e003      	b.n	2782 <_ZN8I2CSlave7StartedEPS_PKN2QP4QEvtE+0x4e>
    277a:	348c      	adds	r4, #140	; 0x8c
    277c:	6820      	ldr	r0, [r4, #0]
    277e:	f7fd fdee 	bl	35e <_Z10enableWIREP6Sercom>
    2782:	0028      	movs	r0, r5
    2784:	bd70      	pop	{r4, r5, r6, pc}
    2786:	200a      	movs	r0, #10
    2788:	888d      	ldrh	r5, [r1, #4]
    278a:	f7fe f8f9 	bl	980 <_ZN2FW3EvtnwEj>
    278e:	2310      	movs	r3, #16
    2790:	8003      	strh	r3, [r0, #0]
    2792:	2300      	movs	r3, #0
    2794:	8085      	strh	r5, [r0, #4]
    2796:	7183      	strb	r3, [r0, #6]
    2798:	8103      	strh	r3, [r0, #8]
    279a:	f7fe fd39 	bl	1210 <_ZN2QP2QF8publish_EPKNS_4QEvtE>
    279e:	4b04      	ldr	r3, [pc, #16]	; (27b0 <_ZN8I2CSlave7StartedEPS_PKN2QP4QEvtE+0x7c>)
    27a0:	e7e8      	b.n	2774 <_ZN8I2CSlave7StartedEPS_PKN2QP4QEvtE+0x40>
    27a2:	4b04      	ldr	r3, [pc, #16]	; (27b4 <_ZN8I2CSlave7StartedEPS_PKN2QP4QEvtE+0x80>)
    27a4:	6818      	ldr	r0, [r3, #0]
    27a6:	e7e0      	b.n	276a <_ZN8I2CSlave7StartedEPS_PKN2QP4QEvtE+0x36>
    27a8:	00002481 	.word	0x00002481
    27ac:	000027b9 	.word	0x000027b9
    27b0:	000025ed 	.word	0x000025ed
    27b4:	20000808 	.word	0x20000808

000027b8 <_ZN8I2CSlave4IdleEPS_PKN2QP4QEvtE>:
    27b8:	880b      	ldrh	r3, [r1, #0]
    27ba:	b5f7      	push	{r0, r1, r2, r4, r5, r6, r7, lr}
    27bc:	0006      	movs	r6, r0
    27be:	000c      	movs	r4, r1
    27c0:	2b02      	cmp	r3, #2
    27c2:	d008      	beq.n	27d6 <_ZN8I2CSlave4IdleEPS_PKN2QP4QEvtE+0x1e>
    27c4:	2b12      	cmp	r3, #18
    27c6:	d00b      	beq.n	27e0 <_ZN8I2CSlave4IdleEPS_PKN2QP4QEvtE+0x28>
    27c8:	2000      	movs	r0, #0
    27ca:	2b01      	cmp	r3, #1
    27cc:	d140      	bne.n	2850 <_ZN8I2CSlave4IdleEPS_PKN2QP4QEvtE+0x98>
    27ce:	4b22      	ldr	r3, [pc, #136]	; (2858 <_ZN8I2CSlave4IdleEPS_PKN2QP4QEvtE+0xa0>)
    27d0:	7018      	strb	r0, [r3, #0]
    27d2:	2003      	movs	r0, #3
    27d4:	bdfe      	pop	{r1, r2, r3, r4, r5, r6, r7, pc}
    27d6:	2280      	movs	r2, #128	; 0x80
    27d8:	4b20      	ldr	r3, [pc, #128]	; (285c <_ZN8I2CSlave4IdleEPS_PKN2QP4QEvtE+0xa4>)
    27da:	0512      	lsls	r2, r2, #20
    27dc:	619a      	str	r2, [r3, #24]
    27de:	e7f8      	b.n	27d2 <_ZN8I2CSlave4IdleEPS_PKN2QP4QEvtE+0x1a>
    27e0:	0003      	movs	r3, r0
    27e2:	7a0d      	ldrb	r5, [r1, #8]
    27e4:	3374      	adds	r3, #116	; 0x74
    27e6:	9300      	str	r3, [sp, #0]
    27e8:	2d00      	cmp	r5, #0
    27ea:	d014      	beq.n	2816 <_ZN8I2CSlave4IdleEPS_PKN2QP4QEvtE+0x5e>
    27ec:	2010      	movs	r0, #16
    27ee:	798e      	ldrb	r6, [r1, #6]
    27f0:	79cc      	ldrb	r4, [r1, #7]
    27f2:	f7fe f8c5 	bl	980 <_ZN2FW3EvtnwEj>
    27f6:	4a1a      	ldr	r2, [pc, #104]	; (2860 <_ZN8I2CSlave4IdleEPS_PKN2QP4QEvtE+0xa8>)
    27f8:	9b00      	ldr	r3, [sp, #0]
    27fa:	6812      	ldr	r2, [r2, #0]
    27fc:	781b      	ldrb	r3, [r3, #0]
    27fe:	60c2      	str	r2, [r0, #12]
    2800:	220c      	movs	r2, #12
    2802:	8002      	strh	r2, [r0, #0]
    2804:	2200      	movs	r2, #0
    2806:	7183      	strb	r3, [r0, #6]
    2808:	8082      	strh	r2, [r0, #4]
    280a:	71c6      	strb	r6, [r0, #7]
    280c:	7204      	strb	r4, [r0, #8]
    280e:	7245      	strb	r5, [r0, #9]
    2810:	f7fe fcfe 	bl	1210 <_ZN2QP2QF8publish_EPKNS_4QEvtE>
    2814:	e7dd      	b.n	27d2 <_ZN8I2CSlave4IdleEPS_PKN2QP4QEvtE+0x1a>
    2816:	4f13      	ldr	r7, [pc, #76]	; (2864 <_ZN8I2CSlave4IdleEPS_PKN2QP4QEvtE+0xac>)
    2818:	6838      	ldr	r0, [r7, #0]
    281a:	f7ff fedc 	bl	25d6 <_ZN2FW4PipeIhE5ResetEv>
    281e:	79a3      	ldrb	r3, [r4, #6]
    2820:	2010      	movs	r0, #16
    2822:	9301      	str	r3, [sp, #4]
    2824:	79e4      	ldrb	r4, [r4, #7]
    2826:	f7fe f8ab 	bl	980 <_ZN2FW3EvtnwEj>
    282a:	9b00      	ldr	r3, [sp, #0]
    282c:	683a      	ldr	r2, [r7, #0]
    282e:	781b      	ldrb	r3, [r3, #0]
    2830:	60c2      	str	r2, [r0, #12]
    2832:	7183      	strb	r3, [r0, #6]
    2834:	466b      	mov	r3, sp
    2836:	220c      	movs	r2, #12
    2838:	791b      	ldrb	r3, [r3, #4]
    283a:	8002      	strh	r2, [r0, #0]
    283c:	71c3      	strb	r3, [r0, #7]
    283e:	8085      	strh	r5, [r0, #4]
    2840:	7204      	strb	r4, [r0, #8]
    2842:	7245      	strb	r5, [r0, #9]
    2844:	f7fe fce4 	bl	1210 <_ZN2QP2QF8publish_EPKNS_4QEvtE>
    2848:	4b07      	ldr	r3, [pc, #28]	; (2868 <_ZN8I2CSlave4IdleEPS_PKN2QP4QEvtE+0xb0>)
    284a:	2008      	movs	r0, #8
    284c:	60b3      	str	r3, [r6, #8]
    284e:	e7c1      	b.n	27d4 <_ZN8I2CSlave4IdleEPS_PKN2QP4QEvtE+0x1c>
    2850:	4b06      	ldr	r3, [pc, #24]	; (286c <_ZN8I2CSlave4IdleEPS_PKN2QP4QEvtE+0xb4>)
    2852:	60b3      	str	r3, [r6, #8]
    2854:	e7be      	b.n	27d4 <_ZN8I2CSlave4IdleEPS_PKN2QP4QEvtE+0x1c>
    2856:	46c0      	nop			; (mov r8, r8)
    2858:	2000080f 	.word	0x2000080f
    285c:	41004400 	.word	0x41004400
    2860:	20000804 	.word	0x20000804
    2864:	20000800 	.word	0x20000800
    2868:	000024f5 	.word	0x000024f5
    286c:	00002735 	.word	0x00002735

00002870 <SERCOM1_Handler>:
    2870:	b5f0      	push	{r4, r5, r6, r7, lr}
    2872:	4c6a      	ldr	r4, [pc, #424]	; (2a1c <SERCOM1_Handler+0x1ac>)
    2874:	b085      	sub	sp, #20
    2876:	7e22      	ldrb	r2, [r4, #24]
    2878:	0023      	movs	r3, r4
    287a:	0792      	lsls	r2, r2, #30
    287c:	d504      	bpl.n	2888 <SERCOM1_Handler+0x18>
    287e:	4a68      	ldr	r2, [pc, #416]	; (2a20 <SERCOM1_Handler+0x1b0>)
    2880:	7812      	ldrb	r2, [r2, #0]
    2882:	2a00      	cmp	r2, #0
    2884:	d000      	beq.n	2888 <SERCOM1_Handler+0x18>
    2886:	e0b6      	b.n	29f6 <SERCOM1_Handler+0x186>
    2888:	7e1a      	ldrb	r2, [r3, #24]
    288a:	07d2      	lsls	r2, r2, #31
    288c:	d40b      	bmi.n	28a6 <SERCOM1_Handler+0x36>
    288e:	7e1a      	ldrb	r2, [r3, #24]
    2890:	0792      	lsls	r2, r2, #30
    2892:	d400      	bmi.n	2896 <SERCOM1_Handler+0x26>
    2894:	e0b3      	b.n	29fe <SERCOM1_Handler+0x18e>
    2896:	8b5a      	ldrh	r2, [r3, #26]
    2898:	06d2      	lsls	r2, r2, #27
    289a:	d400      	bmi.n	289e <SERCOM1_Handler+0x2e>
    289c:	e0af      	b.n	29fe <SERCOM1_Handler+0x18e>
    289e:	8b5a      	ldrh	r2, [r3, #26]
    28a0:	0712      	lsls	r2, r2, #28
    28a2:	d500      	bpl.n	28a6 <SERCOM1_Handler+0x36>
    28a4:	e0ab      	b.n	29fe <SERCOM1_Handler+0x18e>
    28a6:	485d      	ldr	r0, [pc, #372]	; (2a1c <SERCOM1_Handler+0x1ac>)
    28a8:	f7fd fd00 	bl	2ac <_Z17prepareAckBitWIREP6Sercom>
    28ac:	2103      	movs	r1, #3
    28ae:	485b      	ldr	r0, [pc, #364]	; (2a1c <SERCOM1_Handler+0x1ac>)
    28b0:	f7fd fd04 	bl	2bc <_Z22prepareCommandBitsWireP6Sercomh>
    28b4:	4b5b      	ldr	r3, [pc, #364]	; (2a24 <SERCOM1_Handler+0x1b4>)
    28b6:	4c5c      	ldr	r4, [pc, #368]	; (2a28 <SERCOM1_Handler+0x1b8>)
    28b8:	7818      	ldrb	r0, [r3, #0]
    28ba:	4b5c      	ldr	r3, [pc, #368]	; (2a2c <SERCOM1_Handler+0x1bc>)
    28bc:	b2c0      	uxtb	r0, r0
    28be:	7819      	ldrb	r1, [r3, #0]
    28c0:	7822      	ldrb	r2, [r4, #0]
    28c2:	b2c9      	uxtb	r1, r1
    28c4:	b2d2      	uxtb	r2, r2
    28c6:	2a00      	cmp	r2, #0
    28c8:	d002      	beq.n	28d0 <SERCOM1_Handler+0x60>
    28ca:	7822      	ldrb	r2, [r4, #0]
    28cc:	3a02      	subs	r2, #2
    28ce:	b2d2      	uxtb	r2, r2
    28d0:	f7ff fe70 	bl	25b4 <_ZN8I2CSlave15ReceiveCallbackEhhh>
    28d4:	2300      	movs	r3, #0
    28d6:	7023      	strb	r3, [r4, #0]
    28d8:	b672      	cpsid	i
    28da:	f7fe fe5f 	bl	159c <QXK_sched_>
    28de:	2800      	cmp	r0, #0
    28e0:	d003      	beq.n	28ea <SERCOM1_Handler+0x7a>
    28e2:	2280      	movs	r2, #128	; 0x80
    28e4:	4b52      	ldr	r3, [pc, #328]	; (2a30 <SERCOM1_Handler+0x1c0>)
    28e6:	0552      	lsls	r2, r2, #21
    28e8:	601a      	str	r2, [r3, #0]
    28ea:	b662      	cpsie	i
    28ec:	b005      	add	sp, #20
    28ee:	bdf0      	pop	{r4, r5, r6, r7, pc}
    28f0:	7e1a      	ldrb	r2, [r3, #24]
    28f2:	0752      	lsls	r2, r2, #29
    28f4:	d5f0      	bpl.n	28d8 <SERCOM1_Handler+0x68>
    28f6:	8b5b      	ldrh	r3, [r3, #26]
    28f8:	aa02      	add	r2, sp, #8
    28fa:	071b      	lsls	r3, r3, #28
    28fc:	0fde      	lsrs	r6, r3, #31
    28fe:	1dd5      	adds	r5, r2, #7
    2900:	2b00      	cmp	r3, #0
    2902:	da29      	bge.n	2958 <SERCOM1_Handler+0xe8>
    2904:	4b4b      	ldr	r3, [pc, #300]	; (2a34 <SERCOM1_Handler+0x1c4>)
    2906:	681f      	ldr	r7, [r3, #0]
    2908:	f3ef 8310 	mrs	r3, PRIMASK
    290c:	9300      	str	r3, [sp, #0]
    290e:	b672      	cpsid	i
    2910:	6939      	ldr	r1, [r7, #16]
    2912:	68fb      	ldr	r3, [r7, #12]
    2914:	68bc      	ldr	r4, [r7, #8]
    2916:	1a5e      	subs	r6, r3, r1
    2918:	4026      	ands	r6, r4
    291a:	d000      	beq.n	291e <SERCOM1_Handler+0xae>
    291c:	2601      	movs	r6, #1
    291e:	3401      	adds	r4, #1
    2920:	1873      	adds	r3, r6, r1
    2922:	42a3      	cmp	r3, r4
    2924:	d80f      	bhi.n	2946 <SERCOM1_Handler+0xd6>
    2926:	0032      	movs	r2, r6
    2928:	0029      	movs	r1, r5
    292a:	0038      	movs	r0, r7
    292c:	f7ff f902 	bl	1b34 <_ZN2FW4PipeIhE9ReadBlockEPhm>
    2930:	9b00      	ldr	r3, [sp, #0]
    2932:	f383 8810 	msr	PRIMASK, r3
    2936:	21ff      	movs	r1, #255	; 0xff
    2938:	2e00      	cmp	r6, #0
    293a:	d000      	beq.n	293e <SERCOM1_Handler+0xce>
    293c:	7829      	ldrb	r1, [r5, #0]
    293e:	4837      	ldr	r0, [pc, #220]	; (2a1c <SERCOM1_Handler+0x1ac>)
    2940:	f7fd fc9e 	bl	280 <_Z17sendDataSlaveWIREP6Sercomh>
    2944:	e7c8      	b.n	28d8 <SERCOM1_Handler+0x68>
    2946:	1a64      	subs	r4, r4, r1
    2948:	0022      	movs	r2, r4
    294a:	0029      	movs	r1, r5
    294c:	0038      	movs	r0, r7
    294e:	f7ff f8f1 	bl	1b34 <_ZN2FW4PipeIhE9ReadBlockEPhm>
    2952:	1b32      	subs	r2, r6, r4
    2954:	1929      	adds	r1, r5, r4
    2956:	e7e8      	b.n	292a <SERCOM1_Handler+0xba>
    2958:	4830      	ldr	r0, [pc, #192]	; (2a1c <SERCOM1_Handler+0x1ac>)
    295a:	f7fd fccb 	bl	2f4 <_Z12readDataWIREP6Sercom>
    295e:	4f32      	ldr	r7, [pc, #200]	; (2a28 <SERCOM1_Handler+0x1b8>)
    2960:	7028      	strb	r0, [r5, #0]
    2962:	783b      	ldrb	r3, [r7, #0]
    2964:	3301      	adds	r3, #1
    2966:	b2db      	uxtb	r3, r3
    2968:	703b      	strb	r3, [r7, #0]
    296a:	783b      	ldrb	r3, [r7, #0]
    296c:	2b01      	cmp	r3, #1
    296e:	d106      	bne.n	297e <SERCOM1_Handler+0x10e>
    2970:	4b2c      	ldr	r3, [pc, #176]	; (2a24 <SERCOM1_Handler+0x1b4>)
    2972:	7018      	strb	r0, [r3, #0]
    2974:	2103      	movs	r1, #3
    2976:	4829      	ldr	r0, [pc, #164]	; (2a1c <SERCOM1_Handler+0x1ac>)
    2978:	f7fd fca0 	bl	2bc <_Z22prepareCommandBitsWireP6Sercomh>
    297c:	e7ac      	b.n	28d8 <SERCOM1_Handler+0x68>
    297e:	783b      	ldrb	r3, [r7, #0]
    2980:	2b02      	cmp	r3, #2
    2982:	d101      	bne.n	2988 <SERCOM1_Handler+0x118>
    2984:	4b29      	ldr	r3, [pc, #164]	; (2a2c <SERCOM1_Handler+0x1bc>)
    2986:	e7f4      	b.n	2972 <SERCOM1_Handler+0x102>
    2988:	4b2b      	ldr	r3, [pc, #172]	; (2a38 <SERCOM1_Handler+0x1c8>)
    298a:	681c      	ldr	r4, [r3, #0]
    298c:	f3ef 8310 	mrs	r3, PRIMASK
    2990:	9300      	str	r3, [sp, #0]
    2992:	b672      	cpsid	i
    2994:	6923      	ldr	r3, [r4, #16]
    2996:	68e2      	ldr	r2, [r4, #12]
    2998:	68a1      	ldr	r1, [r4, #8]
    299a:	3b01      	subs	r3, #1
    299c:	1a9b      	subs	r3, r3, r2
    299e:	400b      	ands	r3, r1
    29a0:	d10a      	bne.n	29b8 <SERCOM1_Handler+0x148>
    29a2:	2201      	movs	r2, #1
    29a4:	7522      	strb	r2, [r4, #20]
    29a6:	9a00      	ldr	r2, [sp, #0]
    29a8:	f382 8810 	msr	PRIMASK, r2
    29ac:	481b      	ldr	r0, [pc, #108]	; (2a1c <SERCOM1_Handler+0x1ac>)
    29ae:	2b00      	cmp	r3, #0
    29b0:	d01a      	beq.n	29e8 <SERCOM1_Handler+0x178>
    29b2:	f7fd fc7b 	bl	2ac <_Z17prepareAckBitWIREP6Sercom>
    29b6:	e7dd      	b.n	2974 <SERCOM1_Handler+0x104>
    29b8:	1c53      	adds	r3, r2, #1
    29ba:	1c48      	adds	r0, r1, #1
    29bc:	7526      	strb	r6, [r4, #20]
    29be:	4283      	cmp	r3, r0
    29c0:	d806      	bhi.n	29d0 <SERCOM1_Handler+0x160>
    29c2:	2201      	movs	r2, #1
    29c4:	0029      	movs	r1, r5
    29c6:	0020      	movs	r0, r4
    29c8:	f7fe ffaa 	bl	1920 <_ZN2FW4PipeIhE10WriteBlockEPKhm>
    29cc:	2301      	movs	r3, #1
    29ce:	e7ea      	b.n	29a6 <SERCOM1_Handler+0x136>
    29d0:	1a8e      	subs	r6, r1, r2
    29d2:	1c73      	adds	r3, r6, #1
    29d4:	001a      	movs	r2, r3
    29d6:	0029      	movs	r1, r5
    29d8:	0020      	movs	r0, r4
    29da:	9301      	str	r3, [sp, #4]
    29dc:	f7fe ffa0 	bl	1920 <_ZN2FW4PipeIhE10WriteBlockEPKhm>
    29e0:	9b01      	ldr	r3, [sp, #4]
    29e2:	4272      	negs	r2, r6
    29e4:	18e9      	adds	r1, r5, r3
    29e6:	e7ee      	b.n	29c6 <SERCOM1_Handler+0x156>
    29e8:	f7fd fc58 	bl	29c <_Z18prepareNackBitWIREP6Sercom>
    29ec:	783b      	ldrb	r3, [r7, #0]
    29ee:	3b01      	subs	r3, #1
    29f0:	b2db      	uxtb	r3, r3
    29f2:	703b      	strb	r3, [r7, #0]
    29f4:	e7be      	b.n	2974 <SERCOM1_Handler+0x104>
    29f6:	0020      	movs	r0, r4
    29f8:	f7fd fc50 	bl	29c <_Z18prepareNackBitWIREP6Sercom>
    29fc:	e7ba      	b.n	2974 <SERCOM1_Handler+0x104>
    29fe:	7e1a      	ldrb	r2, [r3, #24]
    2a00:	0792      	lsls	r2, r2, #30
    2a02:	d400      	bmi.n	2a06 <SERCOM1_Handler+0x196>
    2a04:	e774      	b.n	28f0 <SERCOM1_Handler+0x80>
    2a06:	4805      	ldr	r0, [pc, #20]	; (2a1c <SERCOM1_Handler+0x1ac>)
    2a08:	f7fd fc50 	bl	2ac <_Z17prepareAckBitWIREP6Sercom>
    2a0c:	2103      	movs	r1, #3
    2a0e:	4803      	ldr	r0, [pc, #12]	; (2a1c <SERCOM1_Handler+0x1ac>)
    2a10:	f7fd fc54 	bl	2bc <_Z22prepareCommandBitsWireP6Sercomh>
    2a14:	2200      	movs	r2, #0
    2a16:	4b04      	ldr	r3, [pc, #16]	; (2a28 <SERCOM1_Handler+0x1b8>)
    2a18:	701a      	strb	r2, [r3, #0]
    2a1a:	e75d      	b.n	28d8 <SERCOM1_Handler+0x68>
    2a1c:	42000c00 	.word	0x42000c00
    2a20:	2000080f 	.word	0x2000080f
    2a24:	2000080d 	.word	0x2000080d
    2a28:	2000080c 	.word	0x2000080c
    2a2c:	2000080e 	.word	0x2000080e
    2a30:	e000ed04 	.word	0xe000ed04
    2a34:	20000808 	.word	0x20000808
    2a38:	20000804 	.word	0x20000804

00002a3c <_ZN6System4RootEPS_PKN2QP4QEvtE>:
    2a3c:	0003      	movs	r3, r0
    2a3e:	8808      	ldrh	r0, [r1, #0]
    2a40:	b500      	push	{lr}
    2a42:	3801      	subs	r0, #1
    2a44:	2805      	cmp	r0, #5
    2a46:	d80a      	bhi.n	2a5e <_ZN6System4RootEPS_PKN2QP4QEvtE+0x22>
    2a48:	f000 f9d0 	bl	2dec <__gnu_thumb1_case_uqi>
    2a4c:	09030d0d 	.word	0x09030d0d
    2a50:	0709      	.short	0x0709
    2a52:	4a06      	ldr	r2, [pc, #24]	; (2a6c <_ZN6System4RootEPS_PKN2QP4QEvtE+0x30>)
    2a54:	2008      	movs	r0, #8
    2a56:	609a      	str	r2, [r3, #8]
    2a58:	bd00      	pop	{pc}
    2a5a:	4a05      	ldr	r2, [pc, #20]	; (2a70 <_ZN6System4RootEPS_PKN2QP4QEvtE+0x34>)
    2a5c:	e7fa      	b.n	2a54 <_ZN6System4RootEPS_PKN2QP4QEvtE+0x18>
    2a5e:	4a05      	ldr	r2, [pc, #20]	; (2a74 <_ZN6System4RootEPS_PKN2QP4QEvtE+0x38>)
    2a60:	2000      	movs	r0, #0
    2a62:	609a      	str	r2, [r3, #8]
    2a64:	e7f8      	b.n	2a58 <_ZN6System4RootEPS_PKN2QP4QEvtE+0x1c>
    2a66:	2003      	movs	r0, #3
    2a68:	e7f6      	b.n	2a58 <_ZN6System4RootEPS_PKN2QP4QEvtE+0x1c>
    2a6a:	46c0      	nop			; (mov r8, r8)
    2a6c:	00002b1d 	.word	0x00002b1d
    2a70:	00002c11 	.word	0x00002c11
    2a74:	00000a91 	.word	0x00000a91

00002a78 <_ZN6System7StartedEPS_PKN2QP4QEvtE>:
    2a78:	880a      	ldrh	r2, [r1, #0]
    2a7a:	2a08      	cmp	r2, #8
    2a7c:	d806      	bhi.n	2a8c <_ZN6System7StartedEPS_PKN2QP4QEvtE+0x14>
    2a7e:	2301      	movs	r3, #1
    2a80:	2183      	movs	r1, #131	; 0x83
    2a82:	4093      	lsls	r3, r2
    2a84:	0049      	lsls	r1, r1, #1
    2a86:	2203      	movs	r2, #3
    2a88:	420b      	tst	r3, r1
    2a8a:	d102      	bne.n	2a92 <_ZN6System7StartedEPS_PKN2QP4QEvtE+0x1a>
    2a8c:	2200      	movs	r2, #0
    2a8e:	4b02      	ldr	r3, [pc, #8]	; (2a98 <_ZN6System7StartedEPS_PKN2QP4QEvtE+0x20>)
    2a90:	6083      	str	r3, [r0, #8]
    2a92:	0010      	movs	r0, r2
    2a94:	4770      	bx	lr
    2a96:	46c0      	nop			; (mov r8, r8)
    2a98:	00002a3d 	.word	0x00002a3d

00002a9c <_ZN2FW4PipeIhED1Ev>:
    2a9c:	4770      	bx	lr

00002a9e <_ZN2FW4PipeIhED0Ev>:
    2a9e:	b510      	push	{r4, lr}
    2aa0:	0004      	movs	r4, r0
    2aa2:	2118      	movs	r1, #24
    2aa4:	f000 f999 	bl	2dda <_ZdlPvj>
    2aa8:	0020      	movs	r0, r4
    2aaa:	bd10      	pop	{r4, pc}

00002aac <_ZN6System18InitialPseudoStateEPS_PKN2QP4QEvtE>:
    2aac:	b510      	push	{r4, lr}
    2aae:	0004      	movs	r4, r0
    2ab0:	2104      	movs	r1, #4
    2ab2:	f7fe fc0f 	bl	12d4 <_ZNK2QP7QActive9subscribeEi>
    2ab6:	0020      	movs	r0, r4
    2ab8:	2106      	movs	r1, #6
    2aba:	f7fe fc0b 	bl	12d4 <_ZNK2QP7QActive9subscribeEi>
    2abe:	0020      	movs	r0, r4
    2ac0:	2109      	movs	r1, #9
    2ac2:	f7fe fc07 	bl	12d4 <_ZNK2QP7QActive9subscribeEi>
    2ac6:	0020      	movs	r0, r4
    2ac8:	210a      	movs	r1, #10
    2aca:	f7fe fc03 	bl	12d4 <_ZNK2QP7QActive9subscribeEi>
    2ace:	0020      	movs	r0, r4
    2ad0:	210e      	movs	r1, #14
    2ad2:	f7fe fbff 	bl	12d4 <_ZNK2QP7QActive9subscribeEi>
    2ad6:	0020      	movs	r0, r4
    2ad8:	2110      	movs	r1, #16
    2ada:	f7fe fbfb 	bl	12d4 <_ZNK2QP7QActive9subscribeEi>
    2ade:	0020      	movs	r0, r4
    2ae0:	211c      	movs	r1, #28
    2ae2:	f7fe fbf7 	bl	12d4 <_ZNK2QP7QActive9subscribeEi>
    2ae6:	0020      	movs	r0, r4
    2ae8:	211e      	movs	r1, #30
    2aea:	f7fe fbf3 	bl	12d4 <_ZNK2QP7QActive9subscribeEi>
    2aee:	0020      	movs	r0, r4
    2af0:	2116      	movs	r1, #22
    2af2:	f7fe fbef 	bl	12d4 <_ZNK2QP7QActive9subscribeEi>
    2af6:	0020      	movs	r0, r4
    2af8:	2118      	movs	r1, #24
    2afa:	f7fe fbeb 	bl	12d4 <_ZNK2QP7QActive9subscribeEi>
    2afe:	0020      	movs	r0, r4
    2b00:	213b      	movs	r1, #59	; 0x3b
    2b02:	f7fe fbe7 	bl	12d4 <_ZNK2QP7QActive9subscribeEi>
    2b06:	0020      	movs	r0, r4
    2b08:	213d      	movs	r1, #61	; 0x3d
    2b0a:	f7fe fbe3 	bl	12d4 <_ZNK2QP7QActive9subscribeEi>
    2b0e:	4b02      	ldr	r3, [pc, #8]	; (2b18 <_ZN6System18InitialPseudoStateEPS_PKN2QP4QEvtE+0x6c>)
    2b10:	2008      	movs	r0, #8
    2b12:	60a3      	str	r3, [r4, #8]
    2b14:	bd10      	pop	{r4, pc}
    2b16:	46c0      	nop			; (mov r8, r8)
    2b18:	00002a3d 	.word	0x00002a3d

00002b1c <_ZN6System7StoppedEPS_PKN2QP4QEvtE>:
    2b1c:	0003      	movs	r3, r0
    2b1e:	8808      	ldrh	r0, [r1, #0]
    2b20:	b510      	push	{r4, lr}
    2b22:	3801      	subs	r0, #1
    2b24:	2805      	cmp	r0, #5
    2b26:	d816      	bhi.n	2b56 <_ZN6System7StoppedEPS_PKN2QP4QEvtE+0x3a>
    2b28:	f000 f960 	bl	2dec <__gnu_thumb1_case_uqi>
    2b2c:	11150f0f 	.word	0x11150f0f
    2b30:	0315      	.short	0x0315
    2b32:	200a      	movs	r0, #10
    2b34:	888c      	ldrh	r4, [r1, #4]
    2b36:	f7fd ff23 	bl	980 <_ZN2FW3EvtnwEj>
    2b3a:	2307      	movs	r3, #7
    2b3c:	8003      	strh	r3, [r0, #0]
    2b3e:	2300      	movs	r3, #0
    2b40:	8084      	strh	r4, [r0, #4]
    2b42:	7183      	strb	r3, [r0, #6]
    2b44:	8103      	strh	r3, [r0, #8]
    2b46:	f7fe fb63 	bl	1210 <_ZN2QP2QF8publish_EPKNS_4QEvtE>
    2b4a:	2003      	movs	r0, #3
    2b4c:	e002      	b.n	2b54 <_ZN6System7StoppedEPS_PKN2QP4QEvtE+0x38>
    2b4e:	2008      	movs	r0, #8
    2b50:	4a03      	ldr	r2, [pc, #12]	; (2b60 <_ZN6System7StoppedEPS_PKN2QP4QEvtE+0x44>)
    2b52:	609a      	str	r2, [r3, #8]
    2b54:	bd10      	pop	{r4, pc}
    2b56:	4a03      	ldr	r2, [pc, #12]	; (2b64 <_ZN6System7StoppedEPS_PKN2QP4QEvtE+0x48>)
    2b58:	2000      	movs	r0, #0
    2b5a:	609a      	str	r2, [r3, #8]
    2b5c:	e7fa      	b.n	2b54 <_ZN6System7StoppedEPS_PKN2QP4QEvtE+0x38>
    2b5e:	46c0      	nop			; (mov r8, r8)
    2b60:	00002cf5 	.word	0x00002cf5
    2b64:	00002a3d 	.word	0x00002a3d

00002b68 <_ZN6SystemC1Ev>:
    2b68:	b510      	push	{r4, lr}
    2b6a:	0004      	movs	r4, r0
    2b6c:	4911      	ldr	r1, [pc, #68]	; (2bb4 <_ZN6SystemC1Ev+0x4c>)
    2b6e:	f7fe fbdf 	bl	1330 <_ZN2QP7QActiveC1EPFjPvPKNS_4QEvtEE>
    2b72:	4b11      	ldr	r3, [pc, #68]	; (2bb8 <_ZN6SystemC1Ev+0x50>)
    2b74:	2201      	movs	r2, #1
    2b76:	6023      	str	r3, [r4, #0]
    2b78:	0023      	movs	r3, r4
    2b7a:	3374      	adds	r3, #116	; 0x74
    2b7c:	701a      	strb	r2, [r3, #0]
    2b7e:	4b0f      	ldr	r3, [pc, #60]	; (2bbc <_ZN6SystemC1Ev+0x54>)
    2b80:	0022      	movs	r2, r4
    2b82:	67e3      	str	r3, [r4, #124]	; 0x7c
    2b84:	0023      	movs	r3, r4
    2b86:	480e      	ldr	r0, [pc, #56]	; (2bc0 <_ZN6SystemC1Ev+0x58>)
    2b88:	33c0      	adds	r3, #192	; 0xc0
    2b8a:	6198      	str	r0, [r3, #24]
    2b8c:	6018      	str	r0, [r3, #0]
    2b8e:	3280      	adds	r2, #128	; 0x80
    2b90:	0020      	movs	r0, r4
    2b92:	605a      	str	r2, [r3, #4]
    2b94:	211f      	movs	r1, #31
    2b96:	2200      	movs	r2, #0
    2b98:	30a0      	adds	r0, #160	; 0xa0
    2b9a:	61d8      	str	r0, [r3, #28]
    2b9c:	751a      	strb	r2, [r3, #20]
    2b9e:	6219      	str	r1, [r3, #32]
    2ba0:	625a      	str	r2, [r3, #36]	; 0x24
    2ba2:	629a      	str	r2, [r3, #40]	; 0x28
    2ba4:	6099      	str	r1, [r3, #8]
    2ba6:	60da      	str	r2, [r3, #12]
    2ba8:	611a      	str	r2, [r3, #16]
    2baa:	3318      	adds	r3, #24
    2bac:	0020      	movs	r0, r4
    2bae:	751a      	strb	r2, [r3, #20]
    2bb0:	bd10      	pop	{r4, pc}
    2bb2:	46c0      	nop			; (mov r8, r8)
    2bb4:	00002aad 	.word	0x00002aad
    2bb8:	00003044 	.word	0x00003044
    2bbc:	00003349 	.word	0x00003349
    2bc0:	0000332c 	.word	0x0000332c

00002bc4 <_ZN6System9HandleCfmERKN2FW8ErrorEvtEh>:
    2bc4:	b570      	push	{r4, r5, r6, lr}
    2bc6:	798d      	ldrb	r5, [r1, #6]
    2bc8:	0004      	movs	r4, r0
    2bca:	2d00      	cmp	r5, #0
    2bcc:	d113      	bne.n	2bf6 <_ZN6System9HandleCfmERKN2FW8ErrorEvtEh+0x32>
    2bce:	0001      	movs	r1, r0
    2bd0:	317a      	adds	r1, #122	; 0x7a
    2bd2:	780b      	ldrb	r3, [r1, #0]
    2bd4:	3301      	adds	r3, #1
    2bd6:	b2db      	uxtb	r3, r3
    2bd8:	700b      	strb	r3, [r1, #0]
    2bda:	4293      	cmp	r3, r2
    2bdc:	d10a      	bne.n	2bf4 <_ZN6System9HandleCfmERKN2FW8ErrorEvtEh+0x30>
    2bde:	2006      	movs	r0, #6
    2be0:	f7fd fece 	bl	980 <_ZN2FW3EvtnwEj>
    2be4:	2309      	movs	r3, #9
    2be6:	0001      	movs	r1, r0
    2be8:	8003      	strh	r3, [r0, #0]
    2bea:	8085      	strh	r5, [r0, #4]
    2bec:	6823      	ldr	r3, [r4, #0]
    2bee:	0020      	movs	r0, r4
    2bf0:	6a1b      	ldr	r3, [r3, #32]
    2bf2:	4798      	blx	r3
    2bf4:	bd70      	pop	{r4, r5, r6, pc}
    2bf6:	200a      	movs	r0, #10
    2bf8:	890e      	ldrh	r6, [r1, #8]
    2bfa:	f7fd fec1 	bl	980 <_ZN2FW3EvtnwEj>
    2bfe:	230a      	movs	r3, #10
    2c00:	8003      	strh	r3, [r0, #0]
    2c02:	2300      	movs	r3, #0
    2c04:	0001      	movs	r1, r0
    2c06:	8083      	strh	r3, [r0, #4]
    2c08:	7185      	strb	r5, [r0, #6]
    2c0a:	8106      	strh	r6, [r0, #8]
    2c0c:	e7ee      	b.n	2bec <_ZN6System9HandleCfmERKN2FW8ErrorEvtEh+0x28>
	...

00002c10 <_ZN6System8StoppingEPS_PKN2QP4QEvtE>:
    2c10:	880b      	ldrh	r3, [r1, #0]
    2c12:	b570      	push	{r4, r5, r6, lr}
    2c14:	0004      	movs	r4, r0
    2c16:	2b1e      	cmp	r3, #30
    2c18:	d01f      	beq.n	2c5a <_ZN6System8StoppingEPS_PKN2QP4QEvtE+0x4a>
    2c1a:	d817      	bhi.n	2c4c <_ZN6System8StoppingEPS_PKN2QP4QEvtE+0x3c>
    2c1c:	2b09      	cmp	r3, #9
    2c1e:	d04e      	beq.n	2cbe <_ZN6System8StoppingEPS_PKN2QP4QEvtE+0xae>
    2c20:	d808      	bhi.n	2c34 <_ZN6System8StoppingEPS_PKN2QP4QEvtE+0x24>
    2c22:	2b01      	cmp	r3, #1
    2c24:	d025      	beq.n	2c72 <_ZN6System8StoppingEPS_PKN2QP4QEvtE+0x62>
    2c26:	2503      	movs	r5, #3
    2c28:	2b02      	cmp	r3, #2
    2c2a:	d046      	beq.n	2cba <_ZN6System8StoppingEPS_PKN2QP4QEvtE+0xaa>
    2c2c:	4b2e      	ldr	r3, [pc, #184]	; (2ce8 <_ZN6System8StoppingEPS_PKN2QP4QEvtE+0xd8>)
    2c2e:	2500      	movs	r5, #0
    2c30:	60a3      	str	r3, [r4, #8]
    2c32:	e042      	b.n	2cba <_ZN6System8StoppingEPS_PKN2QP4QEvtE+0xaa>
    2c34:	2b10      	cmp	r3, #16
    2c36:	d010      	beq.n	2c5a <_ZN6System8StoppingEPS_PKN2QP4QEvtE+0x4a>
    2c38:	2b18      	cmp	r3, #24
    2c3a:	d00e      	beq.n	2c5a <_ZN6System8StoppingEPS_PKN2QP4QEvtE+0x4a>
    2c3c:	2b0a      	cmp	r3, #10
    2c3e:	d1f5      	bne.n	2c2c <_ZN6System8StoppingEPS_PKN2QP4QEvtE+0x1c>
    2c40:	218e      	movs	r1, #142	; 0x8e
    2c42:	482a      	ldr	r0, [pc, #168]	; (2cec <_ZN6System8StoppingEPS_PKN2QP4QEvtE+0xdc>)
    2c44:	0049      	lsls	r1, r1, #1
    2c46:	f7fd fe96 	bl	976 <Q_onAssert>
    2c4a:	e036      	b.n	2cba <_ZN6System8StoppingEPS_PKN2QP4QEvtE+0xaa>
    2c4c:	2b2e      	cmp	r3, #46	; 0x2e
    2c4e:	d004      	beq.n	2c5a <_ZN6System8StoppingEPS_PKN2QP4QEvtE+0x4a>
    2c50:	d808      	bhi.n	2c64 <_ZN6System8StoppingEPS_PKN2QP4QEvtE+0x54>
    2c52:	2b25      	cmp	r3, #37	; 0x25
    2c54:	d001      	beq.n	2c5a <_ZN6System8StoppingEPS_PKN2QP4QEvtE+0x4a>
    2c56:	2b2a      	cmp	r3, #42	; 0x2a
    2c58:	d1e8      	bne.n	2c2c <_ZN6System8StoppingEPS_PKN2QP4QEvtE+0x1c>
    2c5a:	2204      	movs	r2, #4
    2c5c:	0020      	movs	r0, r4
    2c5e:	f7ff ffb1 	bl	2bc4 <_ZN6System9HandleCfmERKN2FW8ErrorEvtEh>
    2c62:	e029      	b.n	2cb8 <_ZN6System8StoppingEPS_PKN2QP4QEvtE+0xa8>
    2c64:	2b3d      	cmp	r3, #61	; 0x3d
    2c66:	d0f8      	beq.n	2c5a <_ZN6System8StoppingEPS_PKN2QP4QEvtE+0x4a>
    2c68:	2b43      	cmp	r3, #67	; 0x43
    2c6a:	d0f6      	beq.n	2c5a <_ZN6System8StoppingEPS_PKN2QP4QEvtE+0x4a>
    2c6c:	2b34      	cmp	r3, #52	; 0x34
    2c6e:	d1dd      	bne.n	2c2c <_ZN6System8StoppingEPS_PKN2QP4QEvtE+0x1c>
    2c70:	e7f3      	b.n	2c5a <_ZN6System8StoppingEPS_PKN2QP4QEvtE+0x4a>
    2c72:	2500      	movs	r5, #0
    2c74:	347a      	adds	r4, #122	; 0x7a
    2c76:	7025      	strb	r5, [r4, #0]
    2c78:	2006      	movs	r0, #6
    2c7a:	f7fd fe81 	bl	980 <_ZN2FW3EvtnwEj>
    2c7e:	2317      	movs	r3, #23
    2c80:	8085      	strh	r5, [r0, #4]
    2c82:	8003      	strh	r3, [r0, #0]
    2c84:	f7fe fac4 	bl	1210 <_ZN2QP2QF8publish_EPKNS_4QEvtE>
    2c88:	2006      	movs	r0, #6
    2c8a:	f7fd fe79 	bl	980 <_ZN2FW3EvtnwEj>
    2c8e:	230f      	movs	r3, #15
    2c90:	8085      	strh	r5, [r0, #4]
    2c92:	8003      	strh	r3, [r0, #0]
    2c94:	f7fe fabc 	bl	1210 <_ZN2QP2QF8publish_EPKNS_4QEvtE>
    2c98:	2006      	movs	r0, #6
    2c9a:	f7fd fe71 	bl	980 <_ZN2FW3EvtnwEj>
    2c9e:	231d      	movs	r3, #29
    2ca0:	8085      	strh	r5, [r0, #4]
    2ca2:	8003      	strh	r3, [r0, #0]
    2ca4:	f7fe fab4 	bl	1210 <_ZN2QP2QF8publish_EPKNS_4QEvtE>
    2ca8:	2006      	movs	r0, #6
    2caa:	f7fd fe69 	bl	980 <_ZN2FW3EvtnwEj>
    2cae:	233c      	movs	r3, #60	; 0x3c
    2cb0:	8085      	strh	r5, [r0, #4]
    2cb2:	8003      	strh	r3, [r0, #0]
    2cb4:	f7fe faac 	bl	1210 <_ZN2QP2QF8publish_EPKNS_4QEvtE>
    2cb8:	2503      	movs	r5, #3
    2cba:	0028      	movs	r0, r5
    2cbc:	bd70      	pop	{r4, r5, r6, pc}
    2cbe:	0003      	movs	r3, r0
    2cc0:	3376      	adds	r3, #118	; 0x76
    2cc2:	881d      	ldrh	r5, [r3, #0]
    2cc4:	2006      	movs	r0, #6
    2cc6:	1c6a      	adds	r2, r5, #1
    2cc8:	801a      	strh	r2, [r3, #0]
    2cca:	f7fd fe59 	bl	980 <_ZN2FW3EvtnwEj>
    2cce:	2304      	movs	r3, #4
    2cd0:	8003      	strh	r3, [r0, #0]
    2cd2:	6823      	ldr	r3, [r4, #0]
    2cd4:	8085      	strh	r5, [r0, #4]
    2cd6:	0001      	movs	r1, r0
    2cd8:	6a1b      	ldr	r3, [r3, #32]
    2cda:	0020      	movs	r0, r4
    2cdc:	4798      	blx	r3
    2cde:	4b04      	ldr	r3, [pc, #16]	; (2cf0 <_ZN6System8StoppingEPS_PKN2QP4QEvtE+0xe0>)
    2ce0:	2508      	movs	r5, #8
    2ce2:	60a3      	str	r3, [r4, #8]
    2ce4:	e7e9      	b.n	2cba <_ZN6System8StoppingEPS_PKN2QP4QEvtE+0xaa>
    2ce6:	46c0      	nop			; (mov r8, r8)
    2ce8:	00002a3d 	.word	0x00002a3d
    2cec:	00003334 	.word	0x00003334
    2cf0:	00002b1d 	.word	0x00002b1d

00002cf4 <_ZN6System8StartingEPS_PKN2QP4QEvtE>:
    2cf4:	880b      	ldrh	r3, [r1, #0]
    2cf6:	b570      	push	{r4, r5, r6, lr}
    2cf8:	0004      	movs	r4, r0
    2cfa:	2b1c      	cmp	r3, #28
    2cfc:	d011      	beq.n	2d22 <_ZN6System8StartingEPS_PKN2QP4QEvtE+0x2e>
    2cfe:	d815      	bhi.n	2d2c <_ZN6System8StartingEPS_PKN2QP4QEvtE+0x38>
    2d00:	2b0a      	cmp	r3, #10
    2d02:	d80a      	bhi.n	2d1a <_ZN6System8StartingEPS_PKN2QP4QEvtE+0x26>
    2d04:	2b09      	cmp	r3, #9
    2d06:	d24b      	bcs.n	2da0 <_ZN6System8StartingEPS_PKN2QP4QEvtE+0xac>
    2d08:	2b01      	cmp	r3, #1
    2d0a:	d01e      	beq.n	2d4a <_ZN6System8StartingEPS_PKN2QP4QEvtE+0x56>
    2d0c:	2003      	movs	r0, #3
    2d0e:	2b02      	cmp	r3, #2
    2d10:	d045      	beq.n	2d9e <_ZN6System8StartingEPS_PKN2QP4QEvtE+0xaa>
    2d12:	4b2c      	ldr	r3, [pc, #176]	; (2dc4 <_ZN6System8StartingEPS_PKN2QP4QEvtE+0xd0>)
    2d14:	2000      	movs	r0, #0
    2d16:	60a3      	str	r3, [r4, #8]
    2d18:	e041      	b.n	2d9e <_ZN6System8StartingEPS_PKN2QP4QEvtE+0xaa>
    2d1a:	2b0e      	cmp	r3, #14
    2d1c:	d001      	beq.n	2d22 <_ZN6System8StartingEPS_PKN2QP4QEvtE+0x2e>
    2d1e:	2b16      	cmp	r3, #22
    2d20:	d1f7      	bne.n	2d12 <_ZN6System8StartingEPS_PKN2QP4QEvtE+0x1e>
    2d22:	2204      	movs	r2, #4
    2d24:	0020      	movs	r0, r4
    2d26:	f7ff ff4d 	bl	2bc4 <_ZN6System9HandleCfmERKN2FW8ErrorEvtEh>
    2d2a:	e037      	b.n	2d9c <_ZN6System8StartingEPS_PKN2QP4QEvtE+0xa8>
    2d2c:	2b2c      	cmp	r3, #44	; 0x2c
    2d2e:	d0f8      	beq.n	2d22 <_ZN6System8StartingEPS_PKN2QP4QEvtE+0x2e>
    2d30:	d804      	bhi.n	2d3c <_ZN6System8StartingEPS_PKN2QP4QEvtE+0x48>
    2d32:	2b23      	cmp	r3, #35	; 0x23
    2d34:	d0f5      	beq.n	2d22 <_ZN6System8StartingEPS_PKN2QP4QEvtE+0x2e>
    2d36:	2b28      	cmp	r3, #40	; 0x28
    2d38:	d1eb      	bne.n	2d12 <_ZN6System8StartingEPS_PKN2QP4QEvtE+0x1e>
    2d3a:	e7f2      	b.n	2d22 <_ZN6System8StartingEPS_PKN2QP4QEvtE+0x2e>
    2d3c:	2b3b      	cmp	r3, #59	; 0x3b
    2d3e:	d0f0      	beq.n	2d22 <_ZN6System8StartingEPS_PKN2QP4QEvtE+0x2e>
    2d40:	2b41      	cmp	r3, #65	; 0x41
    2d42:	d0ee      	beq.n	2d22 <_ZN6System8StartingEPS_PKN2QP4QEvtE+0x2e>
    2d44:	2b32      	cmp	r3, #50	; 0x32
    2d46:	d1e4      	bne.n	2d12 <_ZN6System8StartingEPS_PKN2QP4QEvtE+0x1e>
    2d48:	e7eb      	b.n	2d22 <_ZN6System8StartingEPS_PKN2QP4QEvtE+0x2e>
    2d4a:	0003      	movs	r3, r0
    2d4c:	2500      	movs	r5, #0
    2d4e:	337a      	adds	r3, #122	; 0x7a
    2d50:	701d      	strb	r5, [r3, #0]
    2d52:	2006      	movs	r0, #6
    2d54:	f7fd fe14 	bl	980 <_ZN2FW3EvtnwEj>
    2d58:	2315      	movs	r3, #21
    2d5a:	8085      	strh	r5, [r0, #4]
    2d5c:	8003      	strh	r3, [r0, #0]
    2d5e:	f7fe fa57 	bl	1210 <_ZN2QP2QF8publish_EPKNS_4QEvtE>
    2d62:	2010      	movs	r0, #16
    2d64:	f7fd fe0c 	bl	980 <_ZN2FW3EvtnwEj>
    2d68:	230d      	movs	r3, #13
    2d6a:	8003      	strh	r3, [r0, #0]
    2d6c:	0023      	movs	r3, r4
    2d6e:	34c0      	adds	r4, #192	; 0xc0
    2d70:	33d8      	adds	r3, #216	; 0xd8
    2d72:	6083      	str	r3, [r0, #8]
    2d74:	8085      	strh	r5, [r0, #4]
    2d76:	60c4      	str	r4, [r0, #12]
    2d78:	f7fe fa4a 	bl	1210 <_ZN2QP2QF8publish_EPKNS_4QEvtE>
    2d7c:	2006      	movs	r0, #6
    2d7e:	f7fd fdff 	bl	980 <_ZN2FW3EvtnwEj>
    2d82:	231b      	movs	r3, #27
    2d84:	8085      	strh	r5, [r0, #4]
    2d86:	8003      	strh	r3, [r0, #0]
    2d88:	f7fe fa42 	bl	1210 <_ZN2QP2QF8publish_EPKNS_4QEvtE>
    2d8c:	2006      	movs	r0, #6
    2d8e:	f7fd fdf7 	bl	980 <_ZN2FW3EvtnwEj>
    2d92:	233a      	movs	r3, #58	; 0x3a
    2d94:	8085      	strh	r5, [r0, #4]
    2d96:	8003      	strh	r3, [r0, #0]
    2d98:	f7fe fa3a 	bl	1210 <_ZN2QP2QF8publish_EPKNS_4QEvtE>
    2d9c:	2003      	movs	r0, #3
    2d9e:	bd70      	pop	{r4, r5, r6, pc}
    2da0:	200a      	movs	r0, #10
    2da2:	f7fd fded 	bl	980 <_ZN2FW3EvtnwEj>
    2da6:	0023      	movs	r3, r4
    2da8:	3378      	adds	r3, #120	; 0x78
    2daa:	881b      	ldrh	r3, [r3, #0]
    2dac:	2205      	movs	r2, #5
    2dae:	8083      	strh	r3, [r0, #4]
    2db0:	2300      	movs	r3, #0
    2db2:	8002      	strh	r2, [r0, #0]
    2db4:	7183      	strb	r3, [r0, #6]
    2db6:	8103      	strh	r3, [r0, #8]
    2db8:	f7fe fa2a 	bl	1210 <_ZN2QP2QF8publish_EPKNS_4QEvtE>
    2dbc:	4b02      	ldr	r3, [pc, #8]	; (2dc8 <_ZN6System8StartingEPS_PKN2QP4QEvtE+0xd4>)
    2dbe:	2008      	movs	r0, #8
    2dc0:	60a3      	str	r3, [r4, #8]
    2dc2:	e7ec      	b.n	2d9e <_ZN6System8StartingEPS_PKN2QP4QEvtE+0xaa>
    2dc4:	00002a3d 	.word	0x00002a3d
    2dc8:	00002a79 	.word	0x00002a79

00002dcc <__aeabi_atexit>:
    2dcc:	000b      	movs	r3, r1
    2dce:	b510      	push	{r4, lr}
    2dd0:	0001      	movs	r1, r0
    2dd2:	0018      	movs	r0, r3
    2dd4:	f000 f8a0 	bl	2f18 <__cxa_atexit>
    2dd8:	bd10      	pop	{r4, pc}

00002dda <_ZdlPvj>:
    2dda:	b510      	push	{r4, lr}
    2ddc:	f000 f801 	bl	2de2 <_ZdlPv>
    2de0:	bd10      	pop	{r4, pc}

00002de2 <_ZdlPv>:
    2de2:	b510      	push	{r4, lr}
    2de4:	f000 f8ca 	bl	2f7c <free>
    2de8:	bd10      	pop	{r4, pc}
	...

00002dec <__gnu_thumb1_case_uqi>:
    2dec:	b402      	push	{r1}
    2dee:	4671      	mov	r1, lr
    2df0:	0849      	lsrs	r1, r1, #1
    2df2:	0049      	lsls	r1, r1, #1
    2df4:	5c09      	ldrb	r1, [r1, r0]
    2df6:	0049      	lsls	r1, r1, #1
    2df8:	448e      	add	lr, r1
    2dfa:	bc02      	pop	{r1}
    2dfc:	4770      	bx	lr
    2dfe:	46c0      	nop			; (mov r8, r8)

00002e00 <__udivsi3>:
    2e00:	2200      	movs	r2, #0
    2e02:	0843      	lsrs	r3, r0, #1
    2e04:	428b      	cmp	r3, r1
    2e06:	d374      	bcc.n	2ef2 <__udivsi3+0xf2>
    2e08:	0903      	lsrs	r3, r0, #4
    2e0a:	428b      	cmp	r3, r1
    2e0c:	d35f      	bcc.n	2ece <__udivsi3+0xce>
    2e0e:	0a03      	lsrs	r3, r0, #8
    2e10:	428b      	cmp	r3, r1
    2e12:	d344      	bcc.n	2e9e <__udivsi3+0x9e>
    2e14:	0b03      	lsrs	r3, r0, #12
    2e16:	428b      	cmp	r3, r1
    2e18:	d328      	bcc.n	2e6c <__udivsi3+0x6c>
    2e1a:	0c03      	lsrs	r3, r0, #16
    2e1c:	428b      	cmp	r3, r1
    2e1e:	d30d      	bcc.n	2e3c <__udivsi3+0x3c>
    2e20:	22ff      	movs	r2, #255	; 0xff
    2e22:	0209      	lsls	r1, r1, #8
    2e24:	ba12      	rev	r2, r2
    2e26:	0c03      	lsrs	r3, r0, #16
    2e28:	428b      	cmp	r3, r1
    2e2a:	d302      	bcc.n	2e32 <__udivsi3+0x32>
    2e2c:	1212      	asrs	r2, r2, #8
    2e2e:	0209      	lsls	r1, r1, #8
    2e30:	d065      	beq.n	2efe <__udivsi3+0xfe>
    2e32:	0b03      	lsrs	r3, r0, #12
    2e34:	428b      	cmp	r3, r1
    2e36:	d319      	bcc.n	2e6c <__udivsi3+0x6c>
    2e38:	e000      	b.n	2e3c <__udivsi3+0x3c>
    2e3a:	0a09      	lsrs	r1, r1, #8
    2e3c:	0bc3      	lsrs	r3, r0, #15
    2e3e:	428b      	cmp	r3, r1
    2e40:	d301      	bcc.n	2e46 <__udivsi3+0x46>
    2e42:	03cb      	lsls	r3, r1, #15
    2e44:	1ac0      	subs	r0, r0, r3
    2e46:	4152      	adcs	r2, r2
    2e48:	0b83      	lsrs	r3, r0, #14
    2e4a:	428b      	cmp	r3, r1
    2e4c:	d301      	bcc.n	2e52 <__udivsi3+0x52>
    2e4e:	038b      	lsls	r3, r1, #14
    2e50:	1ac0      	subs	r0, r0, r3
    2e52:	4152      	adcs	r2, r2
    2e54:	0b43      	lsrs	r3, r0, #13
    2e56:	428b      	cmp	r3, r1
    2e58:	d301      	bcc.n	2e5e <__udivsi3+0x5e>
    2e5a:	034b      	lsls	r3, r1, #13
    2e5c:	1ac0      	subs	r0, r0, r3
    2e5e:	4152      	adcs	r2, r2
    2e60:	0b03      	lsrs	r3, r0, #12
    2e62:	428b      	cmp	r3, r1
    2e64:	d301      	bcc.n	2e6a <__udivsi3+0x6a>
    2e66:	030b      	lsls	r3, r1, #12
    2e68:	1ac0      	subs	r0, r0, r3
    2e6a:	4152      	adcs	r2, r2
    2e6c:	0ac3      	lsrs	r3, r0, #11
    2e6e:	428b      	cmp	r3, r1
    2e70:	d301      	bcc.n	2e76 <__udivsi3+0x76>
    2e72:	02cb      	lsls	r3, r1, #11
    2e74:	1ac0      	subs	r0, r0, r3
    2e76:	4152      	adcs	r2, r2
    2e78:	0a83      	lsrs	r3, r0, #10
    2e7a:	428b      	cmp	r3, r1
    2e7c:	d301      	bcc.n	2e82 <__udivsi3+0x82>
    2e7e:	028b      	lsls	r3, r1, #10
    2e80:	1ac0      	subs	r0, r0, r3
    2e82:	4152      	adcs	r2, r2
    2e84:	0a43      	lsrs	r3, r0, #9
    2e86:	428b      	cmp	r3, r1
    2e88:	d301      	bcc.n	2e8e <__udivsi3+0x8e>
    2e8a:	024b      	lsls	r3, r1, #9
    2e8c:	1ac0      	subs	r0, r0, r3
    2e8e:	4152      	adcs	r2, r2
    2e90:	0a03      	lsrs	r3, r0, #8
    2e92:	428b      	cmp	r3, r1
    2e94:	d301      	bcc.n	2e9a <__udivsi3+0x9a>
    2e96:	020b      	lsls	r3, r1, #8
    2e98:	1ac0      	subs	r0, r0, r3
    2e9a:	4152      	adcs	r2, r2
    2e9c:	d2cd      	bcs.n	2e3a <__udivsi3+0x3a>
    2e9e:	09c3      	lsrs	r3, r0, #7
    2ea0:	428b      	cmp	r3, r1
    2ea2:	d301      	bcc.n	2ea8 <__udivsi3+0xa8>
    2ea4:	01cb      	lsls	r3, r1, #7
    2ea6:	1ac0      	subs	r0, r0, r3
    2ea8:	4152      	adcs	r2, r2
    2eaa:	0983      	lsrs	r3, r0, #6
    2eac:	428b      	cmp	r3, r1
    2eae:	d301      	bcc.n	2eb4 <__udivsi3+0xb4>
    2eb0:	018b      	lsls	r3, r1, #6
    2eb2:	1ac0      	subs	r0, r0, r3
    2eb4:	4152      	adcs	r2, r2
    2eb6:	0943      	lsrs	r3, r0, #5
    2eb8:	428b      	cmp	r3, r1
    2eba:	d301      	bcc.n	2ec0 <__udivsi3+0xc0>
    2ebc:	014b      	lsls	r3, r1, #5
    2ebe:	1ac0      	subs	r0, r0, r3
    2ec0:	4152      	adcs	r2, r2
    2ec2:	0903      	lsrs	r3, r0, #4
    2ec4:	428b      	cmp	r3, r1
    2ec6:	d301      	bcc.n	2ecc <__udivsi3+0xcc>
    2ec8:	010b      	lsls	r3, r1, #4
    2eca:	1ac0      	subs	r0, r0, r3
    2ecc:	4152      	adcs	r2, r2
    2ece:	08c3      	lsrs	r3, r0, #3
    2ed0:	428b      	cmp	r3, r1
    2ed2:	d301      	bcc.n	2ed8 <__udivsi3+0xd8>
    2ed4:	00cb      	lsls	r3, r1, #3
    2ed6:	1ac0      	subs	r0, r0, r3
    2ed8:	4152      	adcs	r2, r2
    2eda:	0883      	lsrs	r3, r0, #2
    2edc:	428b      	cmp	r3, r1
    2ede:	d301      	bcc.n	2ee4 <__udivsi3+0xe4>
    2ee0:	008b      	lsls	r3, r1, #2
    2ee2:	1ac0      	subs	r0, r0, r3
    2ee4:	4152      	adcs	r2, r2
    2ee6:	0843      	lsrs	r3, r0, #1
    2ee8:	428b      	cmp	r3, r1
    2eea:	d301      	bcc.n	2ef0 <__udivsi3+0xf0>
    2eec:	004b      	lsls	r3, r1, #1
    2eee:	1ac0      	subs	r0, r0, r3
    2ef0:	4152      	adcs	r2, r2
    2ef2:	1a41      	subs	r1, r0, r1
    2ef4:	d200      	bcs.n	2ef8 <__udivsi3+0xf8>
    2ef6:	4601      	mov	r1, r0
    2ef8:	4152      	adcs	r2, r2
    2efa:	4610      	mov	r0, r2
    2efc:	4770      	bx	lr
    2efe:	e7ff      	b.n	2f00 <__udivsi3+0x100>
    2f00:	b501      	push	{r0, lr}
    2f02:	2000      	movs	r0, #0
    2f04:	f000 f806 	bl	2f14 <__aeabi_idiv0>
    2f08:	bd02      	pop	{r1, pc}
    2f0a:	46c0      	nop			; (mov r8, r8)

00002f0c <__aeabi_uidivmod>:
    2f0c:	2900      	cmp	r1, #0
    2f0e:	d0f7      	beq.n	2f00 <__udivsi3+0x100>
    2f10:	e776      	b.n	2e00 <__udivsi3>
    2f12:	4770      	bx	lr

00002f14 <__aeabi_idiv0>:
    2f14:	4770      	bx	lr
    2f16:	46c0      	nop			; (mov r8, r8)

00002f18 <__cxa_atexit>:
    2f18:	b570      	push	{r4, r5, r6, lr}
    2f1a:	4c05      	ldr	r4, [pc, #20]	; (2f30 <__cxa_atexit+0x18>)
    2f1c:	0005      	movs	r5, r0
    2f1e:	0013      	movs	r3, r2
    2f20:	1e20      	subs	r0, r4, #0
    2f22:	d004      	beq.n	2f2e <__cxa_atexit+0x16>
    2f24:	000a      	movs	r2, r1
    2f26:	2002      	movs	r0, #2
    2f28:	0029      	movs	r1, r5
    2f2a:	e000      	b.n	2f2e <__cxa_atexit+0x16>
    2f2c:	bf00      	nop
    2f2e:	bd70      	pop	{r4, r5, r6, pc}
    2f30:	00000000 	.word	0x00000000

00002f34 <__libc_init_array>:
    2f34:	b570      	push	{r4, r5, r6, lr}
    2f36:	2600      	movs	r6, #0
    2f38:	4d0c      	ldr	r5, [pc, #48]	; (2f6c <__libc_init_array+0x38>)
    2f3a:	4c0d      	ldr	r4, [pc, #52]	; (2f70 <__libc_init_array+0x3c>)
    2f3c:	1b64      	subs	r4, r4, r5
    2f3e:	10a4      	asrs	r4, r4, #2
    2f40:	42a6      	cmp	r6, r4
    2f42:	d109      	bne.n	2f58 <__libc_init_array+0x24>
    2f44:	2600      	movs	r6, #0
    2f46:	f000 fa03 	bl	3350 <_init>
    2f4a:	4d0a      	ldr	r5, [pc, #40]	; (2f74 <__libc_init_array+0x40>)
    2f4c:	4c0a      	ldr	r4, [pc, #40]	; (2f78 <__libc_init_array+0x44>)
    2f4e:	1b64      	subs	r4, r4, r5
    2f50:	10a4      	asrs	r4, r4, #2
    2f52:	42a6      	cmp	r6, r4
    2f54:	d105      	bne.n	2f62 <__libc_init_array+0x2e>
    2f56:	bd70      	pop	{r4, r5, r6, pc}
    2f58:	00b3      	lsls	r3, r6, #2
    2f5a:	58eb      	ldr	r3, [r5, r3]
    2f5c:	4798      	blx	r3
    2f5e:	3601      	adds	r6, #1
    2f60:	e7ee      	b.n	2f40 <__libc_init_array+0xc>
    2f62:	00b3      	lsls	r3, r6, #2
    2f64:	58eb      	ldr	r3, [r5, r3]
    2f66:	4798      	blx	r3
    2f68:	3601      	adds	r6, #1
    2f6a:	e7f2      	b.n	2f52 <__libc_init_array+0x1e>
    2f6c:	0000335c 	.word	0x0000335c
    2f70:	0000335c 	.word	0x0000335c
    2f74:	0000335c 	.word	0x0000335c
    2f78:	00003374 	.word	0x00003374

00002f7c <free>:
    2f7c:	b510      	push	{r4, lr}
    2f7e:	4b03      	ldr	r3, [pc, #12]	; (2f8c <free+0x10>)
    2f80:	0001      	movs	r1, r0
    2f82:	6818      	ldr	r0, [r3, #0]
    2f84:	f000 f80e 	bl	2fa4 <_free_r>
    2f88:	bd10      	pop	{r4, pc}
    2f8a:	46c0      	nop			; (mov r8, r8)
    2f8c:	20000008 	.word	0x20000008

00002f90 <memcpy>:
    2f90:	2300      	movs	r3, #0
    2f92:	b510      	push	{r4, lr}
    2f94:	429a      	cmp	r2, r3
    2f96:	d100      	bne.n	2f9a <memcpy+0xa>
    2f98:	bd10      	pop	{r4, pc}
    2f9a:	5ccc      	ldrb	r4, [r1, r3]
    2f9c:	54c4      	strb	r4, [r0, r3]
    2f9e:	3301      	adds	r3, #1
    2fa0:	e7f8      	b.n	2f94 <memcpy+0x4>
	...

00002fa4 <_free_r>:
    2fa4:	b570      	push	{r4, r5, r6, lr}
    2fa6:	0005      	movs	r5, r0
    2fa8:	2900      	cmp	r1, #0
    2faa:	d010      	beq.n	2fce <_free_r+0x2a>
    2fac:	1f0c      	subs	r4, r1, #4
    2fae:	6823      	ldr	r3, [r4, #0]
    2fb0:	2b00      	cmp	r3, #0
    2fb2:	da00      	bge.n	2fb6 <_free_r+0x12>
    2fb4:	18e4      	adds	r4, r4, r3
    2fb6:	0028      	movs	r0, r5
    2fb8:	f000 f83e 	bl	3038 <__malloc_lock>
    2fbc:	4a1d      	ldr	r2, [pc, #116]	; (3034 <_free_r+0x90>)
    2fbe:	6813      	ldr	r3, [r2, #0]
    2fc0:	2b00      	cmp	r3, #0
    2fc2:	d105      	bne.n	2fd0 <_free_r+0x2c>
    2fc4:	6063      	str	r3, [r4, #4]
    2fc6:	6014      	str	r4, [r2, #0]
    2fc8:	0028      	movs	r0, r5
    2fca:	f000 f836 	bl	303a <__malloc_unlock>
    2fce:	bd70      	pop	{r4, r5, r6, pc}
    2fd0:	42a3      	cmp	r3, r4
    2fd2:	d909      	bls.n	2fe8 <_free_r+0x44>
    2fd4:	6821      	ldr	r1, [r4, #0]
    2fd6:	1860      	adds	r0, r4, r1
    2fd8:	4283      	cmp	r3, r0
    2fda:	d1f3      	bne.n	2fc4 <_free_r+0x20>
    2fdc:	6818      	ldr	r0, [r3, #0]
    2fde:	685b      	ldr	r3, [r3, #4]
    2fe0:	1841      	adds	r1, r0, r1
    2fe2:	6021      	str	r1, [r4, #0]
    2fe4:	e7ee      	b.n	2fc4 <_free_r+0x20>
    2fe6:	0013      	movs	r3, r2
    2fe8:	685a      	ldr	r2, [r3, #4]
    2fea:	2a00      	cmp	r2, #0
    2fec:	d001      	beq.n	2ff2 <_free_r+0x4e>
    2fee:	42a2      	cmp	r2, r4
    2ff0:	d9f9      	bls.n	2fe6 <_free_r+0x42>
    2ff2:	6819      	ldr	r1, [r3, #0]
    2ff4:	1858      	adds	r0, r3, r1
    2ff6:	42a0      	cmp	r0, r4
    2ff8:	d10b      	bne.n	3012 <_free_r+0x6e>
    2ffa:	6820      	ldr	r0, [r4, #0]
    2ffc:	1809      	adds	r1, r1, r0
    2ffe:	1858      	adds	r0, r3, r1
    3000:	6019      	str	r1, [r3, #0]
    3002:	4282      	cmp	r2, r0
    3004:	d1e0      	bne.n	2fc8 <_free_r+0x24>
    3006:	6810      	ldr	r0, [r2, #0]
    3008:	6852      	ldr	r2, [r2, #4]
    300a:	1841      	adds	r1, r0, r1
    300c:	6019      	str	r1, [r3, #0]
    300e:	605a      	str	r2, [r3, #4]
    3010:	e7da      	b.n	2fc8 <_free_r+0x24>
    3012:	42a0      	cmp	r0, r4
    3014:	d902      	bls.n	301c <_free_r+0x78>
    3016:	230c      	movs	r3, #12
    3018:	602b      	str	r3, [r5, #0]
    301a:	e7d5      	b.n	2fc8 <_free_r+0x24>
    301c:	6821      	ldr	r1, [r4, #0]
    301e:	1860      	adds	r0, r4, r1
    3020:	4282      	cmp	r2, r0
    3022:	d103      	bne.n	302c <_free_r+0x88>
    3024:	6810      	ldr	r0, [r2, #0]
    3026:	6852      	ldr	r2, [r2, #4]
    3028:	1841      	adds	r1, r0, r1
    302a:	6021      	str	r1, [r4, #0]
    302c:	6062      	str	r2, [r4, #4]
    302e:	605c      	str	r4, [r3, #4]
    3030:	e7ca      	b.n	2fc8 <_free_r+0x24>
    3032:	46c0      	nop			; (mov r8, r8)
    3034:	20000810 	.word	0x20000810

00003038 <__malloc_lock>:
    3038:	4770      	bx	lr

0000303a <__malloc_unlock>:
    303a:	4770      	bx	lr

0000303c <_ZTV6System>:
	...
    3044:	0789 0000 079d 0000 0aa5 0000 0469 0000     ............i...
    3054:	0c65 0000 16b5 0000 0475 0000 0d99 0000     e.......u.......
    3064:	0e4d 0000                                   M...

00003068 <_ZTV8Delegate>:
	...
    3070:	0761 0000 0775 0000 0aa5 0000 0469 0000     a...u.......i...
    3080:	0c65 0000 16b5 0000 0475 0000 0d99 0000     e.......u.......
    3090:	0e4d 0000                                   M...

00003094 <_ZTV8I2CSlave>:
	...
    309c:	0739 0000 074d 0000 0aa5 0000 0469 0000     9...M.......i...
    30ac:	0c65 0000 16b5 0000 0475 0000 0d99 0000     e.......u.......
    30bc:	0e4d 0000                                   M...

000030c0 <_ZTV5AOADC>:
	...
    30c8:	0711 0000 0725 0000 0aa5 0000 0469 0000     ....%.......i...
    30d8:	0c65 0000 16b5 0000 0475 0000 0d99 0000     e.......u.......
    30e8:	0e4d 0000                                   M...

000030ec <_ZTV11AOInterrupt>:
	...
    30f4:	06e9 0000 06fd 0000 0aa5 0000 0469 0000     ............i...
    3104:	0c65 0000 16b5 0000 0475 0000 0d99 0000     e.......u.......
    3114:	0e4d 0000                                   M...

00003118 <_ZN2QPL14Q_this_module_E>:
    3118:	6571 5f70 7368 006d                         qep_hsm.

00003120 <_ZTVN2QP4QHsmE>:
	...
    3128:	0a8f 0000 0a95 0000 0aa5 0000 0469 0000     ............i...
    3138:	0c65 0000                                   e...

0000313c <_ZN2QP11QF_log2LkupE>:
    313c:	0100 0202 0303 0303 0404 0404 0404 0404     ................
    314c:	0505 0505 0505 0505 0505 0505 0505 0505     ................
    315c:	0606 0606 0606 0606 0606 0606 0606 0606     ................
    316c:	0606 0606 0606 0606 0606 0606 0606 0606     ................
    317c:	0707 0707 0707 0707 0707 0707 0707 0707     ................
    318c:	0707 0707 0707 0707 0707 0707 0707 0707     ................
    319c:	0707 0707 0707 0707 0707 0707 0707 0707     ................
    31ac:	0707 0707 0707 0707 0707 0707 0707 0707     ................
    31bc:	0808 0808 0808 0808 0808 0808 0808 0808     ................
    31cc:	0808 0808 0808 0808 0808 0808 0808 0808     ................
    31dc:	0808 0808 0808 0808 0808 0808 0808 0808     ................
    31ec:	0808 0808 0808 0808 0808 0808 0808 0808     ................
    31fc:	0808 0808 0808 0808 0808 0808 0808 0808     ................
    320c:	0808 0808 0808 0808 0808 0808 0808 0808     ................
    321c:	0808 0808 0808 0808 0808 0808 0808 0808     ................
    322c:	0808 0808 0808 0808 0808 0808 0808 0808     ................

0000323c <_ZN2QPL14Q_this_module_E>:
    323c:	6671 615f 7463 7100                              qf_act.

00003243 <_ZN2QPL14Q_this_module_E>:
    3243:	6671 615f 7463 0071                         qf_actq.

0000324b <_ZN2QPL14Q_this_module_E>:
    324b:	6671 645f 6e79 7100                              qf_dyn.

00003252 <_ZN2QPL14Q_this_module_E>:
    3252:	6671 6d5f 6d65 7100                              qf_mem.

00003259 <_ZN2QPL14Q_this_module_E>:
    3259:	6671 705f 0073                              qf_ps.

0000325f <_ZN2QPL14Q_this_module_E>:
    325f:	6671 745f 6d69 0065 0000                         qf_time..

00003268 <_ZTVN2QP13QXKIdleThreadE>:
	...
    3270:	1515 0000 1529 0000 0aa5 0000 0469 0000     ....).......i...
    3280:	0c65 0000 16b5 0000 0475 0000 0d99 0000     e.......u.......
    3290:	0e4d 0000                                   M...

00003294 <_ZN2QPL14Q_this_module_E>:
    3294:	7871 006b                                   qxk.

00003298 <_ZTVN2QP7QActiveE>:
	...
    32a0:	06d5 0000 07b1 0000 0aa5 0000 0469 0000     ............i...
    32b0:	0c65 0000 16b5 0000 0475 0000 0d99 0000     e.......u.......
    32c0:	0e4d 0000                                   M...

000032c4 <_ZN2QPL14Q_this_module_E>:
    32c4:	7871 5f6b 756d 6574 0078                    qxk_mutex.

000032ce <_ZL14Q_this_module_>:
    32ce:	2e2e 732f 756f 6372 2f65 4f41 4441 2e43     ../source/AOADC.
    32de:	7063 0070 7766 705f 7069 2e65 0068 4441     cpp.fw_pipe.h.AD
    32ee:	0043 6e49 6574 7272 7075 0074               C.Interrupt.

000032fa <_ZL14Q_this_module_>:
    32fa:	2e2e 732f 756f 6372 2f65 6544 656c 6167     ../source/Delega
    330a:	6574 632e 7070 4400 6c65 6765 7461 0065     te.cpp.Delegate.
    331a:	3249 2043 6c53 7661 0065                    I2C Slave.

00003324 <_ZTVN2FW4PipeIhEE>:
	...
    332c:	2a9d 0000 2a9f 0000                         .*...*..

00003334 <_ZL14Q_this_module_>:
    3334:	2e2e 732f 756f 6372 2f65 7953 7473 6d65     ../source/System
    3344:	632e 7070 5300 5359 4554 004d               .cpp.SYSTEM.

00003350 <_init>:
    3350:	b5f8      	push	{r3, r4, r5, r6, r7, lr}
    3352:	46c0      	nop			; (mov r8, r8)
    3354:	bcf8      	pop	{r3, r4, r5, r6, r7}
    3356:	bc08      	pop	{r3}
    3358:	469e      	mov	lr, r3
    335a:	4770      	bx	lr

0000335c <__init_array_start>:
    335c:	000000b5 	.word	0x000000b5
    3360:	000007c5 	.word	0x000007c5
    3364:	00000d3d 	.word	0x00000d3d
    3368:	00001061 	.word	0x00001061
    336c:	000014fd 	.word	0x000014fd
    3370:	0000172d 	.word	0x0000172d

00003374 <_fini>:
    3374:	b5f8      	push	{r3, r4, r5, r6, r7, lr}
    3376:	46c0      	nop			; (mov r8, r8)
    3378:	bcf8      	pop	{r3, r4, r5, r6, r7}
    337a:	bc08      	pop	{r3}
    337c:	469e      	mov	lr, r3
    337e:	4770      	bx	lr

00003380 <__fini_array_start>:
    3380:	0000008d 	.word	0x0000008d
